
Van_Project.elf:     file format elf32-littleriscv
Van_Project.elf
architecture: riscv:rv32, flags 0x00000112:
EXEC_P, HAS_SYMS, D_PAGED
start address 0x00000000

Program Header:
    LOAD off    0x00001000 vaddr 0x00000000 paddr 0x00000000 align 2**12
         filesz 0x00004958 memsz 0x00004958 flags r-x
    LOAD off    0x00006000 vaddr 0x20000000 paddr 0x00004958 align 2**12
         filesz 0x000000a8 memsz 0x00003348 flags rw-
    LOAD off    0x00006800 vaddr 0x20004800 paddr 0x20004800 align 2**12
         filesz 0x00000000 memsz 0x00000800 flags rw-

Sections:
Idx Name          Size      VMA       LMA       File off  Algn
  0 .init         00000004  00000000  00000000  00001000  2**1
                  CONTENTS, ALLOC, LOAD, READONLY, CODE
  1 .vector       000000fc  00000004  00000004  00001004  2**1
                  CONTENTS, ALLOC, LOAD, READONLY, CODE
  2 .text         00004858  00000100  00000100  00001100  2**8
                  CONTENTS, ALLOC, LOAD, READONLY, CODE
  3 .fini         00000000  00004958  00004958  000060a8  2**0
                  CONTENTS, ALLOC, LOAD, CODE
  4 .dalign       00000000  20000000  20000000  000060a8  2**0
                  CONTENTS
  5 .dlalign      00000000  00004958  00004958  000060a8  2**0
                  CONTENTS
  6 .data         000000a8  20000000  00004958  00006000  2**2
                  CONTENTS, ALLOC, LOAD, DATA
  7 .bss          000032a0  200000a8  00004a00  000060a8  2**2
                  ALLOC
  8 .stack        00000800  20004800  20004800  00006800  2**0
                  ALLOC
  9 .debug_info   0001967f  00000000  00000000  000060a8  2**0
                  CONTENTS, READONLY, DEBUGGING
 10 .debug_abbrev 000040dd  00000000  00000000  0001f727  2**0
                  CONTENTS, READONLY, DEBUGGING
 11 .debug_loc    00007a89  00000000  00000000  00023804  2**0
                  CONTENTS, READONLY, DEBUGGING
 12 .debug_aranges 00000a08  00000000  00000000  0002b290  2**3
                  CONTENTS, READONLY, DEBUGGING
 13 .debug_ranges 00000f70  00000000  00000000  0002bc98  2**3
                  CONTENTS, READONLY, DEBUGGING
 14 .debug_line   0001373e  00000000  00000000  0002cc08  2**0
                  CONTENTS, READONLY, DEBUGGING
 15 .debug_str    00003ca8  00000000  00000000  00040346  2**0
                  CONTENTS, READONLY, DEBUGGING
 16 .comment      00000033  00000000  00000000  00043fee  2**0
                  CONTENTS, READONLY
 17 .debug_frame  0000251c  00000000  00000000  00044024  2**2
                  CONTENTS, READONLY, DEBUGGING
 18 .stab         00000084  00000000  00000000  00046540  2**2
                  CONTENTS, READONLY, DEBUGGING
 19 .stabstr      00000117  00000000  00000000  000465c4  2**0
                  CONTENTS, READONLY, DEBUGGING
SYMBOL TABLE:
00000000 l    d  .init	00000000 .init
00000004 l    d  .vector	00000000 .vector
00000100 l    d  .text	00000000 .text
00004958 l    d  .fini	00000000 .fini
20000000 l    d  .dalign	00000000 .dalign
00004958 l    d  .dlalign	00000000 .dlalign
20000000 l    d  .data	00000000 .data
200000a8 l    d  .bss	00000000 .bss
20004800 l    d  .stack	00000000 .stack
00000000 l    d  .debug_info	00000000 .debug_info
00000000 l    d  .debug_abbrev	00000000 .debug_abbrev
00000000 l    d  .debug_loc	00000000 .debug_loc
00000000 l    d  .debug_aranges	00000000 .debug_aranges
00000000 l    d  .debug_ranges	00000000 .debug_ranges
00000000 l    d  .debug_line	00000000 .debug_line
00000000 l    d  .debug_str	00000000 .debug_str
00000000 l    d  .comment	00000000 .comment
00000000 l    d  .debug_frame	00000000 .debug_frame
00000000 l    d  .stab	00000000 .stab
00000000 l    d  .stabstr	00000000 .stabstr
00000000 l    df *ABS*	00000000 ./Startup/startup_ch32x035.o
00000004 l       .vector	00000000 _vector_base
00000000 l    df *ABS*	00000000 ./FreeRTOS/portable/GCC/RISC-V/portASM.o
0000015c l       .text	00000000 processed_source
00000328 l       .text	00000000 chip_specific_stack_frame
00000000 l    df *ABS*	00000000 button.c
00000000 l    df *ABS*	00000000 ch32x035_it.c
00000000 l    df *ABS*	00000000 eeprom.c
00000000 l    df *ABS*	00000000 gpio.c
00000000 l    df *ABS*	00000000 led7.c
00000000 l    df *ABS*	00000000 main.c
00000000 l    df *ABS*	00000000 rtc.c
00000000 l    df *ABS*	00000000 system_ch32x035.c
00000000 l    df *ABS*	00000000 ch32x035_gpio.c
00000000 l    df *ABS*	00000000 ch32x035_i2c.c
00000000 l    df *ABS*	00000000 ch32x035_misc.c
00000000 l    df *ABS*	00000000 ch32x035_rcc.c
20000000 l     O .data	00000010 APBAHBPrescTable
00000000 l    df *ABS*	00000000 ch32x035_usart.c
00000000 l    df *ABS*	00000000 heap_4.c
00001c2c l     F .text	0000004c prvInsertBlockIntoFreeList
2000014c l     O .bss	00003000 ucHeap
200000d0 l     O .bss	00000004 pxEnd
200000d4 l     O .bss	00000004 xBlockAllocatedBit
200000d8 l     O .bss	00000004 xFreeBytesRemaining
200000dc l     O .bss	00000004 xMinimumEverFreeBytesRemaining
200000e0 l     O .bss	00000004 xNumberOfSuccessfulAllocations
200000e4 l     O .bss	00000004 xNumberOfSuccessfulFrees
200000e8 l     O .bss	00000008 xStart
00000000 l    df *ABS*	00000000 port.c
20000080 l     O .data	00000004 uxCriticalNesting
00000000 l    df *ABS*	00000000 list.c
00000000 l    df *ABS*	00000000 queue.c
000020b0 l     F .text	0000001a prvIsQueueEmpty
000020ca l     F .text	00000028 prvCopyDataFromQueue
000020f2 l     F .text	0000006e prvUnlockQueue
00000000 l    df *ABS*	00000000 tasks.c
000024a4 l     F .text	00000024 prvResetNextTaskUnblockTime
000024c8 l     F .text	000000a6 prvAddCurrentTaskToDelayedList
0000256e l     F .text	00000052 prvIdleTask
2000318c l     O .bss	0000012c pxReadyTasksLists
200032b8 l     O .bss	00000014 xDelayedTaskList1
200032cc l     O .bss	00000014 xDelayedTaskList2
200032e0 l     O .bss	00000014 xPendingReadyList
200032f4 l     O .bss	00000014 xSuspendedTaskList
20003308 l     O .bss	00000014 xTasksWaitingTermination
200000f4 l     O .bss	00000004 pxDelayedTaskList
200000f8 l     O .bss	00000004 pxOverflowDelayedTaskList
200000fc l     O .bss	00000004 uxCurrentNumberOfTasks
20000100 l     O .bss	00000004 uxDeletedTasksWaitingCleanUp
20000104 l     O .bss	00000004 uxSchedulerSuspended
20000108 l     O .bss	00000004 uxTaskNumber
2000010c l     O .bss	00000004 uxTopReadyPriority
20000110 l     O .bss	00000004 xIdleTaskHandle
20000114 l     O .bss	00000004 xNextTaskUnblockTime
20000118 l     O .bss	00000004 xNumOfOverflows
2000011c l     O .bss	00000004 xPendedTicks
20000120 l     O .bss	00000004 xSchedulerRunning
20000124 l     O .bss	00000004 xTickCount
20000128 l     O .bss	00000004 xYieldPending
00000000 l    df *ABS*	00000000 timers.c
00002f2e l     F .text	00000066 prvCheckForValidListAndQueue
00002f94 l     F .text	00000046 prvInsertTimerInActiveList
00002fda l     F .text	00000028 prvReloadTimer
00003002 l     F .text	00000044 prvProcessExpiredTimer
00003046 l     F .text	0000002e prvSwitchTimerLists
00003074 l     F .text	00000194 prvTimerTask
2000331c l     O .bss	00000014 xActiveTimerList1
20003330 l     O .bss	00000014 xActiveTimerList2
2000012c l     O .bss	00000004 pxCurrentTimerList
20000130 l     O .bss	00000004 pxOverflowTimerList
20000134 l     O .bss	00000004 xLastTime.5346
20000138 l     O .bss	00000004 xTimerQueue
2000013c l     O .bss	00000004 xTimerTaskHandle
00000000 l    df *ABS*	00000000 debug.c
20000140 l     O .bss	00000002 p_ms
20000142 l     O .bss	00000001 p_us
20000088 l     O .data	00000004 curbrk.4294
00000000 l    df *ABS*	00000000 memcpy.c
00000000 l    df *ABS*	00000000 printf.c
00000000 l    df *ABS*	00000000 puts.c
00000000 l    df *ABS*	00000000 wbuf.c
00000000 l    df *ABS*	00000000 wsetup.c
00000000 l    df *ABS*	00000000 fflush.c
00000000 l    df *ABS*	00000000 findfp.c
0000387a l     F .text	00000066 std
00000000 l    df *ABS*	00000000 fwalk.c
00000000 l    df *ABS*	00000000 makebuf.c
00000000 l    df *ABS*	00000000 nano-mallocr.c
00000000 l    df *ABS*	00000000 nano-mallocr.c
00000000 l    df *ABS*	00000000 nano-vfprintf.c
00003d24 l     F .text	00000028 __sfputc_r
00000000 l    df *ABS*	00000000 nano-vfprintf_i.c
00000000 l    df *ABS*	00000000 sbrkr.c
00000000 l    df *ABS*	00000000 stdio.c
00000000 l    df *ABS*	00000000 writer.c
00000000 l    df *ABS*	00000000 closer.c
00000000 l    df *ABS*	00000000 fstatr.c
00000000 l    df *ABS*	00000000 isattyr.c
00000000 l    df *ABS*	00000000 lseekr.c
00000000 l    df *ABS*	00000000 memchr.c
00000000 l    df *ABS*	00000000 mlock.c
00000000 l    df *ABS*	00000000 readr.c
00000000 l    df *ABS*	00000000 close.c
00000000 l    df *ABS*	00000000 fstat.c
00000000 l    df *ABS*	00000000 isatty.c
00000000 l    df *ABS*	00000000 lseek.c
00000000 l    df *ABS*	00000000 read.c
00000000 l    df *ABS*	00000000 impure.c
20000010 l     O .data	00000060 impure_data
00000000 l    df *ABS*	00000000 reent.c
0000065c g     F .text	0000018a vReadEeprom
200000c5 g     O .bss	00000001 prevSec
00004538 g     F .text	00000030 _isatty_r
0000344c g     F .text	000000d4 _puts_r
00004568 g     F .text	00000034 _lseek_r
00002006 g     F .text	00000042 vPortExitCritical
20000094 g     O .data	00000008 segmentPins
0000340c g     F .text	00000040 printf
20000870 g       .data	00000000 __global_pointer$
000003f6 g     F .text	00000028 .hidden __riscv_save_8
00001176 g     F .text	0000004a initLed
00001734  w      .text	00000000 TIM1_CC_IRQHandler
000015b4 g     F .text	0000007a RTC_Read_Time
00001a90 g     F .text	00000008 I2C_ReceiveData
00001736  w      .text	00000000 TIM2_UP_IRQHandler
0000446a g     F .text	00000030 __sseek
00003930 g     F .text	0000006c __sinit
0000352c g     F .text	000000bc __swbuf_r
000005cc g     F .text	00000002 HardFault_Handler
00001690 g     F .text	0000002c RTC_Test
00002448 g     F .text	0000005c vQueueWaitForMessageRestricted
000013f0 g     F .text	000000be RTC_Write
200000b5 g     O .bss	00000001 RTCsec
000038ea g     F .text	00000046 __sfmoreglue
20000074 g     O .data	00000004 CFGHR_tmpA
000045b6 g     F .text	00000002 __malloc_unlock
0000174c  w      .text	00000000 USBPD_IRQHandler
00000442 g     F .text	0000000c .hidden __riscv_restore_3
00001f74 g     F .text	0000007c SysTick_Handler
0000170e  w      .text	00000000 PVD_IRQHandler
0000042e g     F .text	00000020 .hidden __riscv_restore_10
000005c8 g     F .text	00000004 NMI_Handler
000003f6 g     F .text	00000028 .hidden __riscv_save_11
000008dc g     F .text	00000016 SaveStructToEEPROM
200000f0 g     O .bss	00000004 pxCurrentTCB
0000107c g     F .text	0000004e displayNumber
00001c22 g     F .text	0000000a USART_GetFlagStatus
00004506 g     F .text	00000032 _fstat_r
20003344 g     O .bss	00000004 errno
00000916 g     F .text	00000044 e_rom_test
000011c0 g     F .text	00000040 clearDisplay
200000a8 g       .bss	00000000 _sbss
00000800 g       *ABS*	00000000 __stack_size
00003298 g     F .text	0000005a USART_Printf_Init
0000173c  w      .text	00000000 EXTI25_16_IRQHandler
00001030 g     F .text	0000004c digitalRead
00001744  w      .text	00000000 USBFS_IRQHandler
200000c4 g     O .bss	00000001 dotBlinkState
00002e2c g     F .text	00000016 vTaskInternalSetTimeOutState
00000442 g     F .text	0000000c .hidden __riscv_restore_2
00001296 g     F .text	00000038 task3_task
00001ee6 g     F .text	0000008e xPortStartScheduler
0000335a g     F .text	000000b2 memcpy
00002c84 g     F .text	00000048 vTaskPlaceOnEventList
00001264 g     F .text	00000032 task2_task
000038e0 g     F .text	0000000a _cleanup_r
00001ea8  w    F .text	0000003e vPortSetupTimerInterrupt
200000c0 g     O .bss	00000004 Task3Task_Handler
00003520 g     F .text	0000000c puts
00001e02 g     F .text	000000a6 vPortFree
20000070 g     O .data	00000004 SystemCoreClock
20005000 g       .stack	00000000 __freertos_irq_stack_top
000045fc g     F .text	00000010 _fstat
00000004 g       .init	00000000 _einit
200000b6 g     O .bss	00000001 RTCyear
00001b3a g     F .text	0000001e RCC_APB2PeriphClockCmd
000003ee g     F .text	00000030 .hidden __riscv_save_12
000017ea g     F .text	0000016e GPIO_Init
00001706  w      .text	00000000 Break_Point_Handler
00001752  w      .text	00000000 TIM2_TRG_COM_IRQHandler
0000042e g     F .text	00000020 .hidden __riscv_restore_11
00001750  w      .text	00000000 TIM2_CC_IRQHandler
200000cc g     O .bss	00000004 NVIC_Priority_Group
0000172c  w      .text	00000000 SPI1_IRQHandler
00001c04 g     F .text	00000016 USART_Cmd
000043c4 g     F .text	00000032 _sbrk_r
0000041e g     F .text	0000000c .hidden __riscv_save_1
00000442 g     F .text	0000000c .hidden __riscv_restore_0
00000eea g     F .text	00000146 digitalWrite
00001714  w      .text	00000000 AWU_IRQHandler
00001712  w      .text	00000000 EXTI7_0_IRQHandler
000045b8 g     F .text	00000034 _read_r
0000205c g     F .text	00000006 vListInitialiseItem
00000404 g     F .text	0000001a .hidden __riscv_save_7
00002288 g     F .text	00000154 xQueueReceive
2000314c g     O .bss	00000040 xQueueRegistry
000014ae g     F .text	000000f2 RTC_Read
0000095a g     F .text	00000590 pinMode
20000090 g     O .data	00000004 digitPins
00001b58 g     F .text	0000001e RCC_APB1PeriphClockCmd
00001702  w      .text	00000000 Ecall_M_Mode_Handler
20004800 g       .stack	00000000 _heap_end
0000162e g     F .text	00000062 RTC_Read_Date
0000460c g     F .text	00000010 _isatty
200000a0 g     O .data	00000004 _global_impure_ptr
00000438 g     F .text	00000016 .hidden __riscv_restore_5
0000171c  w      .text	00000000 DMA1_Channel4_IRQHandler
00001a8c g     F .text	00000004 I2C_SendData
00001724  w      .text	00000000 ADC1_IRQHandler
00003330 g     F .text	0000002a _sbrk
00001c78 g     F .text	0000018a pvPortMalloc
00001754  w      .text	00000000 TIM2_BRK_IRQHandler
0000113c g     F .text	0000003a scanDisplay
00002048 g     F .text	00000014 vListInitialise
00001958 g     F .text	000000ce I2C_Init
00000438 g     F .text	00000016 .hidden __riscv_restore_6
0000173e  w      .text	00000000 USART3_IRQHandler
000015a0 g     F .text	00000014 RTC_Init
00002866 g     F .text	0000000a xTaskGetTickCount
20003348 g       .bss	00000000 _ebss
00001722  w      .text	00000000 DMA1_Channel7_IRQHandler
00003266 g     F .text	00000032 Delay_Init
0000174e  w      .text	00000000 USBPDWakeUp_IRQHandler
0000173a  w      .text	00000000 EXTI15_8_IRQHandler
00002d42 g     F .text	000000ea xTaskRemoveFromEventList
200000b1 g     O .bss	00000001 RTCday
000010ca g     F .text	00000072 showDigit
000003f6 g     F .text	00000028 .hidden __riscv_save_9
00001a3e g     F .text	0000001a I2C_GenerateSTART
000048bc g     O .text	00000020 __sf_fake_stderr
00000404 g     F .text	0000001a .hidden __riscv_save_4
00001726  w      .text	00000000 I2C1_EV_IRQHandler
2000009c g     O .data	00000004 xISRStackTop
00001740  w      .text	00000000 USART4_IRQHandler
00001afc g     F .text	0000003e RCC_GetClocksFreq
00001720  w      .text	00000000 DMA1_Channel6_IRQHandler
00003d4c g     F .text	00000042 __sfputs_r
0000459c g     F .text	00000018 memchr
00001b76 g     F .text	0000008e USART_Init
00002e42 g     F .text	000000c4 xTaskCheckForTimeOut
00003b90 g     F .text	000000b0 _free_r
00001756  w      .text	00000000 TIM3_IRQHandler
0000041e g     F .text	0000000c .hidden __riscv_save_3
00001732  w      .text	00000000 TIM1_TRG_COM_IRQHandler
2000007c g     O .data	00000004 CFGHR_tmpC
00001716  w      .text	00000000 DMA1_Channel1_IRQHandler
00000000 g       .init	00000000 _start
00002856 g     F .text	00000010 vTaskSuspendAll
00001ac0 g     F .text	00000032 I2C_GetFlagStatus
200000b0 g     O .bss	00000001 RTCdate
0000461c g     F .text	00000010 _lseek
00002090 g     F .text	00000020 uxListRemove
00000588 g     F .text	00000040 button_Init
200000b8 g     O .bss	00000004 Task1Task_Handler
200000ac g     O .bss	00000004 dotState
000007e6 g     F .text	000000f6 vWriteEeprom
00001742  w      .text	00000000 DMA1_Channel8_IRQHandler
00002bea g     F .text	0000009a vTaskSwitchContext
00001a26 g     F .text	00000018 I2C_Cmd
00002ccc g     F .text	00000076 vTaskPlaceOnEventListRestricted
000044d6 g     F .text	00000030 _close_r
20000000 g       .dalign	00000000 _data_vma
000035e8 g     F .text	000000fc __swsetup_r
00001748  w      .text	00000000 PIOC_IRQHandler
0000399c g     F .text	000000a0 __sfp
000003f6 g     F .text	00000028 .hidden __riscv_save_10
000043f6 g     F .text	0000002c __sread
00001a98 g     F .text	00000012 I2C_Send7bitAddress
000045b4 g     F .text	00000002 __malloc_lock
00000438 g     F .text	00000016 .hidden __riscv_restore_4
0000042e g     F .text	00000020 .hidden __riscv_restore_8
00003814 g     F .text	00000066 _fflush_r
00000404 g     F .text	0000001a .hidden __riscv_save_6
000048dc g     O .text	00000020 __sf_fake_stdin
0000044e g     F .text	000000a8 memset
0000042e g     F .text	00000020 .hidden __riscv_restore_9
00000438 g     F .text	00000016 .hidden __riscv_restore_7
000012ce g     F .text	0000010e main
00002062 g     F .text	0000002e vListInsert
0000449a g     F .text	00000006 __sclose
000005ce g     F .text	0000008e IIC_Init
00003208 g     F .text	0000005e xTimerCreateTimerTask
00003c40 g     F .text	000000e4 _malloc_r
0000171e  w      .text	00000000 DMA1_Channel5_IRQHandler
0000221c g     F .text	0000006c xQueueGenericCreate
20000078 g     O .data	00000004 CFGHR_tmpB
200000b3 g     O .bss	00000001 RTCmin
000016bc g     F .text	00000042 SystemInit
000046e4 g     O .text	0000000a digitCode
0000340c g     F .text	00000040 iprintf
00002a1c g     F .text	00000168 xTaskResumeAll
20000084 g     O .data	00000004 uxTopUsedPriority
200000a8 g     O .bss	00000004 displayDigits
000027c4 g     F .text	00000092 vTaskStartScheduler
00000000 g       .init	00000000 _sinit
200000b4 g     O .bss	00000001 RTCmonth
000044a0 g     F .text	00000036 _write_r
00000200 g       .text	00000000 xPortStartFirstTask
0000171a  w      .text	00000000 DMA1_Channel3_IRQHandler
00004016 g     F .text	0000010c _printf_common
2000008c g     O .data	00000004 _impure_ptr
00001730  w      .text	00000000 TIM1_UP_IRQHandler
000036e4 g     F .text	00000130 __sflush_r
0000170c  w      .text	00000000 WWDG_IRQHandler
00001704  w      .text	00000000 Ecall_U_Mode_Handler
00002f06 g     F .text	0000000c vTaskMissedYield
20005000 g       .stack	00000000 _eusrstack
0000041e g     F .text	0000000c .hidden __riscv_save_2
00000100 g       .text	00000000 SW_Handler
000023dc g     F .text	0000006c vQueueAddToRegistry
00002870 g     F .text	000001ac xTaskIncrementTick
0000172e  w      .text	00000000 TIM1_BRK_IRQHandler
00003aa6 g     F .text	00000058 __swhatbuf_r
00001c1a g     F .text	00000008 USART_SendData
0000174a  w      .text	00000000 OPA_IRQHandler
00000404 g     F .text	0000001a .hidden __riscv_save_5
00002160 g     F .text	000000bc xQueueGenericReset
000032f2 g     F .text	0000003e _write
200000a8 g       .data	00000000 _edata
20003348 g       .bss	00000000 _end
00000528 g     F .text	00000060 ButtonTask
000025c0 g     F .text	00000204 xTaskCreate
00004958 g       .dlalign	00000000 _data_lma
00001738  w      .text	00000000 USART2_IRQHandler
00004422 g     F .text	00000048 __swrite
00001200 g     F .text	00000064 task1_task
000013dc g     F .text	00000014 Convert_BCD_DECIMAL
00003d8e g     F .text	00000288 _vfiprintf_r
00003a3c g     F .text	0000006a _fwalk_reent
00002b84 g     F .text	00000066 vTaskDelay
00001718  w      .text	00000000 DMA1_Channel2_IRQHandler
000048fc g     O .text	00000020 __sf_fake_stdout
0000042a g     F .text	00000024 .hidden __riscv_restore_12
00002f12 g     F .text	0000001c xTaskGetSchedulerState
0000462c g     F .text	00000010 _read
00001758  w      .text	00000000 handle_reset
00001710  w      .text	00000000 FLASH_IRQHandler
0000041e g     F .text	0000000c .hidden __riscv_save_0
00001746  w      .text	00000000 USBFSWakeUp_IRQHandler
200000c8 g     O .bss	00000004 q
0000172a  w      .text	00000000 USART1_IRQHandler
00003afe g     F .text	00000092 __smakebuf_r
00001a72 g     F .text	0000001a I2C_AcknowledgeConfig
00000300 g       .text	00000000 pxPortInitialiseStack
00004122 g     F .text	000002a2 _printf_i
20000148 g     O .bss	00000004 __malloc_sbrk_start
00001aaa g     F .text	00000016 I2C_CheckEvent
00001a58 g     F .text	0000001a I2C_GenerateSTOP
00001728  w      .text	00000000 I2C1_ER_IRQHandler
00001af2 g     F .text	0000000a NVIC_PriorityGroupConfig
000008f2 g     F .text	00000024 LoadStructFromEEPROM
00001ff0 g     F .text	00000016 vPortEnterCritical
20000144 g     O .bss	00000004 __malloc_free_list
00000442 g     F .text	0000000c .hidden __riscv_restore_1
00003d8e g     F .text	00000288 _vfprintf_r
200000bc g     O .bss	00000004 Task2Task_Handler
200000b2 g     O .bss	00000001 RTChour
000004f6 g     F .text	00000032 readButtonState
000045ec g     F .text	00000010 _close



Disassembly of section .init:

00000000 <_sinit>:
   0:	7580106f          	j	1758 <handle_reset>

Disassembly of section .vector:

00000004 <_vector_base>:
	...
   c:	05c8                	addi	a0,sp,708
   e:	0000                	unimp
  10:	05cc                	addi	a1,sp,708
  12:	0000                	unimp
  14:	0000                	unimp
  16:	0000                	unimp
  18:	1702                	slli	a4,a4,0x20
	...
  22:	0000                	unimp
  24:	1704                	addi	s1,sp,928
  26:	0000                	unimp
  28:	1706                	slli	a4,a4,0x21
	...
  32:	0000                	unimp
  34:	1f74                	addi	a3,sp,956
  36:	0000                	unimp
  38:	0000                	unimp
  3a:	0000                	unimp
  3c:	0100                	addi	s0,sp,128
  3e:	0000                	unimp
  40:	0000                	unimp
  42:	0000                	unimp
  44:	170c                	addi	a1,sp,928
  46:	0000                	unimp
  48:	170e                	slli	a4,a4,0x23
  4a:	0000                	unimp
  4c:	1710                	addi	a2,sp,928
  4e:	0000                	unimp
  50:	0000                	unimp
  52:	0000                	unimp
  54:	1712                	slli	a4,a4,0x24
  56:	0000                	unimp
  58:	1714                	addi	a3,sp,928
  5a:	0000                	unimp
  5c:	1716                	slli	a4,a4,0x25
  5e:	0000                	unimp
  60:	1718                	addi	a4,sp,928
  62:	0000                	unimp
  64:	171a                	slli	a4,a4,0x26
  66:	0000                	unimp
  68:	171c                	addi	a5,sp,928
  6a:	0000                	unimp
  6c:	171e                	slli	a4,a4,0x27
  6e:	0000                	unimp
  70:	1720                	addi	s0,sp,936
  72:	0000                	unimp
  74:	1722                	slli	a4,a4,0x28
  76:	0000                	unimp
  78:	1724                	addi	s1,sp,936
  7a:	0000                	unimp
  7c:	1726                	slli	a4,a4,0x29
  7e:	0000                	unimp
  80:	1728                	addi	a0,sp,936
  82:	0000                	unimp
  84:	172a                	slli	a4,a4,0x2a
  86:	0000                	unimp
  88:	172c                	addi	a1,sp,936
  8a:	0000                	unimp
  8c:	172e                	slli	a4,a4,0x2b
  8e:	0000                	unimp
  90:	1730                	addi	a2,sp,936
  92:	0000                	unimp
  94:	1732                	slli	a4,a4,0x2c
  96:	0000                	unimp
  98:	1734                	addi	a3,sp,936
  9a:	0000                	unimp
  9c:	1736                	slli	a4,a4,0x2d
  9e:	0000                	unimp
  a0:	1738                	addi	a4,sp,936
  a2:	0000                	unimp
  a4:	173a                	slli	a4,a4,0x2e
  a6:	0000                	unimp
  a8:	173c                	addi	a5,sp,936
  aa:	0000                	unimp
  ac:	173e                	slli	a4,a4,0x2f
  ae:	0000                	unimp
  b0:	1740                	addi	s0,sp,932
  b2:	0000                	unimp
  b4:	1742                	slli	a4,a4,0x30
  b6:	0000                	unimp
  b8:	1744                	addi	s1,sp,932
  ba:	0000                	unimp
  bc:	1746                	slli	a4,a4,0x31
  be:	0000                	unimp
  c0:	1748                	addi	a0,sp,932
  c2:	0000                	unimp
  c4:	174a                	slli	a4,a4,0x32
  c6:	0000                	unimp
  c8:	174c                	addi	a1,sp,932
  ca:	0000                	unimp
  cc:	174e                	slli	a4,a4,0x33
  ce:	0000                	unimp
  d0:	1750                	addi	a2,sp,932
  d2:	0000                	unimp
  d4:	1752                	slli	a4,a4,0x34
  d6:	0000                	unimp
  d8:	1754                	addi	a3,sp,932
  da:	0000                	unimp
  dc:	1756                	slli	a4,a4,0x35
	...

Disassembly of section .text:

00000100 <SW_Handler>:
     100:	f8810113          	addi	sp,sp,-120
     104:	c206                	sw	ra,4(sp)
     106:	c416                	sw	t0,8(sp)
     108:	c61a                	sw	t1,12(sp)
     10a:	c81e                	sw	t2,16(sp)
     10c:	ca22                	sw	s0,20(sp)
     10e:	cc26                	sw	s1,24(sp)
     110:	ce2a                	sw	a0,28(sp)
     112:	d02e                	sw	a1,32(sp)
     114:	d232                	sw	a2,36(sp)
     116:	d436                	sw	a3,40(sp)
     118:	d63a                	sw	a4,44(sp)
     11a:	d83e                	sw	a5,48(sp)
     11c:	da42                	sw	a6,52(sp)
     11e:	dc46                	sw	a7,56(sp)
     120:	de4a                	sw	s2,60(sp)
     122:	c0ce                	sw	s3,64(sp)
     124:	c2d2                	sw	s4,68(sp)
     126:	c4d6                	sw	s5,72(sp)
     128:	c6da                	sw	s6,76(sp)
     12a:	c8de                	sw	s7,80(sp)
     12c:	cae2                	sw	s8,84(sp)
     12e:	cce6                	sw	s9,88(sp)
     130:	ceea                	sw	s10,92(sp)
     132:	d0ee                	sw	s11,96(sp)
     134:	d2f2                	sw	t3,100(sp)
     136:	d4f6                	sw	t4,104(sp)
     138:	d6fa                	sw	t5,108(sp)
     13a:	d8fe                	sw	t6,112(sp)
     13c:	300022f3          	csrr	t0,mstatus
     140:	da96                	sw	t0,116(sp)
     142:	20000297          	auipc	t0,0x20000
     146:	fae2a283          	lw	t0,-82(t0) # 200000f0 <pxCurrentTCB>
     14a:	0022a023          	sw	sp,0(t0)
     14e:	341025f3          	csrr	a1,mepc
     152:	c02e                	sw	a1,0(sp)
     154:	82c1a103          	lw	sp,-2004(gp) # 2000009c <xISRStackTop>
     158:	293020ef          	jal	ra,2bea <vTaskSwitchContext>

0000015c <processed_source>:
     15c:	20000317          	auipc	t1,0x20000
     160:	f9432303          	lw	t1,-108(t1) # 200000f0 <pxCurrentTCB>
     164:	00032103          	lw	sp,0(t1)
     168:	4282                	lw	t0,0(sp)
     16a:	34129073          	csrw	mepc,t0
     16e:	52d6                	lw	t0,116(sp)
     170:	30029073          	csrw	mstatus,t0
     174:	4092                	lw	ra,4(sp)
     176:	42a2                	lw	t0,8(sp)
     178:	4332                	lw	t1,12(sp)
     17a:	43c2                	lw	t2,16(sp)
     17c:	4452                	lw	s0,20(sp)
     17e:	44e2                	lw	s1,24(sp)
     180:	4572                	lw	a0,28(sp)
     182:	5582                	lw	a1,32(sp)
     184:	5612                	lw	a2,36(sp)
     186:	56a2                	lw	a3,40(sp)
     188:	5732                	lw	a4,44(sp)
     18a:	57c2                	lw	a5,48(sp)
     18c:	5852                	lw	a6,52(sp)
     18e:	58e2                	lw	a7,56(sp)
     190:	5972                	lw	s2,60(sp)
     192:	4986                	lw	s3,64(sp)
     194:	4a16                	lw	s4,68(sp)
     196:	4aa6                	lw	s5,72(sp)
     198:	4b36                	lw	s6,76(sp)
     19a:	4bc6                	lw	s7,80(sp)
     19c:	4c56                	lw	s8,84(sp)
     19e:	4ce6                	lw	s9,88(sp)
     1a0:	4d76                	lw	s10,92(sp)
     1a2:	5d86                	lw	s11,96(sp)
     1a4:	5e16                	lw	t3,100(sp)
     1a6:	5ea6                	lw	t4,104(sp)
     1a8:	5f36                	lw	t5,108(sp)
     1aa:	5fc6                	lw	t6,112(sp)
     1ac:	07810113          	addi	sp,sp,120
     1b0:	30200073          	mret
     1b4:	00000013          	nop
     1b8:	00000013          	nop
     1bc:	00000013          	nop
     1c0:	00000013          	nop
     1c4:	00000013          	nop
     1c8:	00000013          	nop
     1cc:	00000013          	nop
     1d0:	00000013          	nop
     1d4:	00000013          	nop
     1d8:	00000013          	nop
     1dc:	00000013          	nop
     1e0:	00000013          	nop
     1e4:	00000013          	nop
     1e8:	00000013          	nop
     1ec:	00000013          	nop
     1f0:	00000013          	nop
     1f4:	00000013          	nop
     1f8:	00000013          	nop
     1fc:	00000013          	nop

00000200 <xPortStartFirstTask>:
     200:	82c1a283          	lw	t0,-2004(gp) # 2000009c <xISRStackTop>
     204:	e0028293          	addi	t0,t0,-512
     208:	34029073          	csrw	mscratch,t0
     20c:	20000117          	auipc	sp,0x20000
     210:	ee412103          	lw	sp,-284(sp) # 200000f0 <pxCurrentTCB>
     214:	4102                	lw	sp,0(sp)
     216:	4082                	lw	ra,0(sp)
     218:	4332                	lw	t1,12(sp)
     21a:	43c2                	lw	t2,16(sp)
     21c:	4452                	lw	s0,20(sp)
     21e:	44e2                	lw	s1,24(sp)
     220:	4572                	lw	a0,28(sp)
     222:	5582                	lw	a1,32(sp)
     224:	5612                	lw	a2,36(sp)
     226:	56a2                	lw	a3,40(sp)
     228:	5732                	lw	a4,44(sp)
     22a:	57c2                	lw	a5,48(sp)
     22c:	5852                	lw	a6,52(sp)
     22e:	58e2                	lw	a7,56(sp)
     230:	5972                	lw	s2,60(sp)
     232:	4986                	lw	s3,64(sp)
     234:	4a16                	lw	s4,68(sp)
     236:	4aa6                	lw	s5,72(sp)
     238:	4b36                	lw	s6,76(sp)
     23a:	4bc6                	lw	s7,80(sp)
     23c:	4c56                	lw	s8,84(sp)
     23e:	4ce6                	lw	s9,88(sp)
     240:	4d76                	lw	s10,92(sp)
     242:	5d86                	lw	s11,96(sp)
     244:	5e16                	lw	t3,100(sp)
     246:	5ea6                	lw	t4,104(sp)
     248:	5f36                	lw	t5,108(sp)
     24a:	5fc6                	lw	t6,112(sp)
     24c:	52d6                	lw	t0,116(sp)
     24e:	02a1                	addi	t0,t0,8
     250:	30029073          	csrw	mstatus,t0
     254:	42a2                	lw	t0,8(sp)
     256:	07810113          	addi	sp,sp,120
     25a:	8082                	ret
     25c:	00000013          	nop
     260:	00000013          	nop
     264:	00000013          	nop
     268:	00000013          	nop
     26c:	00000013          	nop
     270:	00000013          	nop
     274:	00000013          	nop
     278:	00000013          	nop
     27c:	00000013          	nop
     280:	00000013          	nop
     284:	00000013          	nop
     288:	00000013          	nop
     28c:	00000013          	nop
     290:	00000013          	nop
     294:	00000013          	nop
     298:	00000013          	nop
     29c:	00000013          	nop
     2a0:	00000013          	nop
     2a4:	00000013          	nop
     2a8:	00000013          	nop
     2ac:	00000013          	nop
     2b0:	00000013          	nop
     2b4:	00000013          	nop
     2b8:	00000013          	nop
     2bc:	00000013          	nop
     2c0:	00000013          	nop
     2c4:	00000013          	nop
     2c8:	00000013          	nop
     2cc:	00000013          	nop
     2d0:	00000013          	nop
     2d4:	00000013          	nop
     2d8:	00000013          	nop
     2dc:	00000013          	nop
     2e0:	00000013          	nop
     2e4:	00000013          	nop
     2e8:	00000013          	nop
     2ec:	00000013          	nop
     2f0:	00000013          	nop
     2f4:	00000013          	nop
     2f8:	00000013          	nop
     2fc:	00000013          	nop

00000300 <pxPortInitialiseStack>:
     300:	300022f3          	csrr	t0,mstatus
     304:	ff72f293          	andi	t0,t0,-9
     308:	18800313          	li	t1,392
     30c:	0312                	slli	t1,t1,0x4
     30e:	0062e2b3          	or	t0,t0,t1
     312:	1571                	addi	a0,a0,-4
     314:	00552023          	sw	t0,0(a0)
     318:	fa850513          	addi	a0,a0,-88
     31c:	c110                	sw	a2,0(a0)
     31e:	1521                	addi	a0,a0,-24
     320:	00052023          	sw	zero,0(a0)
     324:	00000293          	li	t0,0

00000328 <chip_specific_stack_frame>:
     328:	00028763          	beqz	t0,336 <chip_specific_stack_frame+0xe>
     32c:	1571                	addi	a0,a0,-4
     32e:	00052023          	sw	zero,0(a0)
     332:	12fd                	addi	t0,t0,-1
     334:	bfd5                	j	328 <chip_specific_stack_frame>
     336:	1571                	addi	a0,a0,-4
     338:	c10c                	sw	a1,0(a0)
     33a:	8082                	ret
	...

000003ee <__riscv_save_12>:
     3ee:	7139                	addi	sp,sp,-64
     3f0:	4301                	li	t1,0
     3f2:	c66e                	sw	s11,12(sp)
     3f4:	a019                	j	3fa <__riscv_save_10+0x4>

000003f6 <__riscv_save_10>:
     3f6:	7139                	addi	sp,sp,-64
     3f8:	5341                	li	t1,-16
     3fa:	c86a                	sw	s10,16(sp)
     3fc:	ca66                	sw	s9,20(sp)
     3fe:	cc62                	sw	s8,24(sp)
     400:	ce5e                	sw	s7,28(sp)
     402:	a019                	j	408 <__riscv_save_4+0x4>

00000404 <__riscv_save_4>:
     404:	7139                	addi	sp,sp,-64
     406:	5301                	li	t1,-32
     408:	d05a                	sw	s6,32(sp)
     40a:	d256                	sw	s5,36(sp)
     40c:	d452                	sw	s4,40(sp)
     40e:	d64e                	sw	s3,44(sp)
     410:	d84a                	sw	s2,48(sp)
     412:	da26                	sw	s1,52(sp)
     414:	dc22                	sw	s0,56(sp)
     416:	de06                	sw	ra,60(sp)
     418:	40610133          	sub	sp,sp,t1
     41c:	8282                	jr	t0

0000041e <__riscv_save_0>:
     41e:	1141                	addi	sp,sp,-16
     420:	c04a                	sw	s2,0(sp)
     422:	c226                	sw	s1,4(sp)
     424:	c422                	sw	s0,8(sp)
     426:	c606                	sw	ra,12(sp)
     428:	8282                	jr	t0

0000042a <__riscv_restore_12>:
     42a:	4db2                	lw	s11,12(sp)
     42c:	0141                	addi	sp,sp,16

0000042e <__riscv_restore_10>:
     42e:	4d02                	lw	s10,0(sp)
     430:	4c92                	lw	s9,4(sp)
     432:	4c22                	lw	s8,8(sp)
     434:	4bb2                	lw	s7,12(sp)
     436:	0141                	addi	sp,sp,16

00000438 <__riscv_restore_4>:
     438:	4b02                	lw	s6,0(sp)
     43a:	4a92                	lw	s5,4(sp)
     43c:	4a22                	lw	s4,8(sp)
     43e:	49b2                	lw	s3,12(sp)
     440:	0141                	addi	sp,sp,16

00000442 <__riscv_restore_0>:
     442:	4902                	lw	s2,0(sp)
     444:	4492                	lw	s1,4(sp)
     446:	4422                	lw	s0,8(sp)
     448:	40b2                	lw	ra,12(sp)
     44a:	0141                	addi	sp,sp,16
     44c:	8082                	ret

0000044e <memset>:
     44e:	433d                	li	t1,15
     450:	872a                	mv	a4,a0
     452:	02c37363          	bgeu	t1,a2,478 <memset+0x2a>
     456:	00f77793          	andi	a5,a4,15
     45a:	efbd                	bnez	a5,4d8 <memset+0x8a>
     45c:	e5ad                	bnez	a1,4c6 <memset+0x78>
     45e:	ff067693          	andi	a3,a2,-16
     462:	8a3d                	andi	a2,a2,15
     464:	96ba                	add	a3,a3,a4
     466:	c30c                	sw	a1,0(a4)
     468:	c34c                	sw	a1,4(a4)
     46a:	c70c                	sw	a1,8(a4)
     46c:	c74c                	sw	a1,12(a4)
     46e:	0741                	addi	a4,a4,16
     470:	fed76be3          	bltu	a4,a3,466 <memset+0x18>
     474:	e211                	bnez	a2,478 <memset+0x2a>
     476:	8082                	ret
     478:	40c306b3          	sub	a3,t1,a2
     47c:	068a                	slli	a3,a3,0x2
     47e:	00000297          	auipc	t0,0x0
     482:	9696                	add	a3,a3,t0
     484:	00a68067          	jr	10(a3)
     488:	00b70723          	sb	a1,14(a4)
     48c:	00b706a3          	sb	a1,13(a4)
     490:	00b70623          	sb	a1,12(a4)
     494:	00b705a3          	sb	a1,11(a4)
     498:	00b70523          	sb	a1,10(a4)
     49c:	00b704a3          	sb	a1,9(a4)
     4a0:	00b70423          	sb	a1,8(a4)
     4a4:	00b703a3          	sb	a1,7(a4)
     4a8:	00b70323          	sb	a1,6(a4)
     4ac:	00b702a3          	sb	a1,5(a4)
     4b0:	00b70223          	sb	a1,4(a4)
     4b4:	00b701a3          	sb	a1,3(a4)
     4b8:	00b70123          	sb	a1,2(a4)
     4bc:	00b700a3          	sb	a1,1(a4)
     4c0:	00b70023          	sb	a1,0(a4)
     4c4:	8082                	ret
     4c6:	0ff5f593          	andi	a1,a1,255
     4ca:	00859693          	slli	a3,a1,0x8
     4ce:	8dd5                	or	a1,a1,a3
     4d0:	01059693          	slli	a3,a1,0x10
     4d4:	8dd5                	or	a1,a1,a3
     4d6:	b761                	j	45e <memset+0x10>
     4d8:	00279693          	slli	a3,a5,0x2
     4dc:	00000297          	auipc	t0,0x0
     4e0:	9696                	add	a3,a3,t0
     4e2:	8286                	mv	t0,ra
     4e4:	fa8680e7          	jalr	-88(a3)
     4e8:	8096                	mv	ra,t0
     4ea:	17c1                	addi	a5,a5,-16
     4ec:	8f1d                	sub	a4,a4,a5
     4ee:	963e                	add	a2,a2,a5
     4f0:	f8c374e3          	bgeu	t1,a2,478 <memset+0x2a>
     4f4:	b7a5                	j	45c <memset+0xe>

000004f6 <readButtonState>:
     4f6:	f29ff2ef          	jal	t0,41e <__riscv_save_0>
     4fa:	453d                	li	a0,15
     4fc:	335000ef          	jal	ra,1030 <digitalRead>
     500:	4785                	li	a5,1
     502:	c10d                	beqz	a0,524 <readButtonState+0x2e>
     504:	4541                	li	a0,16
     506:	32b000ef          	jal	ra,1030 <digitalRead>
     50a:	4789                	li	a5,2
     50c:	cd01                	beqz	a0,524 <readButtonState+0x2e>
     50e:	4545                	li	a0,17
     510:	321000ef          	jal	ra,1030 <digitalRead>
     514:	478d                	li	a5,3
     516:	c519                	beqz	a0,524 <readButtonState+0x2e>
     518:	4549                	li	a0,18
     51a:	317000ef          	jal	ra,1030 <digitalRead>
     51e:	00153793          	seqz	a5,a0
     522:	078a                	slli	a5,a5,0x2
     524:	853e                	mv	a0,a5
     526:	bf31                	j	442 <__riscv_restore_0>

00000528 <ButtonTask>:
     528:	ecfff2ef          	jal	t0,3f6 <__riscv_save_10>
     52c:	4481                	li	s1,0
     52e:	4909                	li	s2,2
     530:	000049b7          	lui	s3,0x4
     534:	4a0d                	li	s4,3
     536:	00004ab7          	lui	s5,0x4
     53a:	4b11                	li	s6,4
     53c:	00004bb7          	lui	s7,0x4
     540:	4c05                	li	s8,1
     542:	00004cb7          	lui	s9,0x4
     546:	3f45                	jal	4f6 <readButtonState>
     548:	842a                	mv	s0,a0
     54a:	c919                	beqz	a0,560 <ButtonTask+0x38>
     54c:	00a48a63          	beq	s1,a0,560 <ButtonTask+0x38>
     550:	03250663          	beq	a0,s2,57c <ButtonTask+0x54>
     554:	00a96b63          	bltu	s2,a0,56a <ButtonTask+0x42>
     558:	63cc8513          	addi	a0,s9,1596 # 463c <_read+0x10>
     55c:	01840d63          	beq	s0,s8,576 <ButtonTask+0x4e>
     560:	4565                	li	a0,25
     562:	622020ef          	jal	ra,2b84 <vTaskDelay>
     566:	84a2                	mv	s1,s0
     568:	bff9                	j	546 <ButtonTask+0x1e>
     56a:	01450c63          	beq	a0,s4,582 <ButtonTask+0x5a>
     56e:	668b8513          	addi	a0,s7,1640 # 4668 <_read+0x3c>
     572:	ff6417e3          	bne	s0,s6,560 <ButtonTask+0x38>
     576:	7ab020ef          	jal	ra,3520 <puts>
     57a:	b7dd                	j	560 <ButtonTask+0x38>
     57c:	64c98513          	addi	a0,s3,1612 # 464c <_read+0x20>
     580:	bfdd                	j	576 <ButtonTask+0x4e>
     582:	65ca8513          	addi	a0,s5,1628 # 465c <_read+0x30>
     586:	bfc5                	j	576 <ButtonTask+0x4e>

00000588 <button_Init>:
     588:	e97ff2ef          	jal	t0,41e <__riscv_save_0>
     58c:	1141                	addi	sp,sp,-16
     58e:	4585                	li	a1,1
     590:	453d                	li	a0,15
     592:	26e1                	jal	95a <pinMode>
     594:	4585                	li	a1,1
     596:	4541                	li	a0,16
     598:	26c9                	jal	95a <pinMode>
     59a:	4585                	li	a1,1
     59c:	4545                	li	a0,17
     59e:	2e75                	jal	95a <pinMode>
     5a0:	4585                	li	a1,1
     5a2:	4549                	li	a0,18
     5a4:	2e5d                	jal	95a <pinMode>
     5a6:	000045b7          	lui	a1,0x4
     5aa:	00000537          	lui	a0,0x0
     5ae:	007c                	addi	a5,sp,12
     5b0:	4729                	li	a4,10
     5b2:	4681                	li	a3,0
     5b4:	10000613          	li	a2,256
     5b8:	67858593          	addi	a1,a1,1656 # 4678 <_read+0x4c>
     5bc:	52850513          	addi	a0,a0,1320 # 528 <ButtonTask>
     5c0:	000020ef          	jal	ra,25c0 <xTaskCreate>
     5c4:	0141                	addi	sp,sp,16
     5c6:	bdb5                	j	442 <__riscv_restore_0>

000005c8 <NMI_Handler>:
     5c8:	30200073          	mret

000005cc <HardFault_Handler>:
     5cc:	a001                	j	5cc <HardFault_Handler>

000005ce <IIC_Init>:
     5ce:	e37ff2ef          	jal	t0,404 <__riscv_save_4>
     5d2:	1101                	addi	sp,sp,-32
     5d4:	8a2a                	mv	s4,a0
     5d6:	4585                	li	a1,1
     5d8:	4511                	li	a0,4
     5da:	c202                	sw	zero,4(sp)
     5dc:	c402                	sw	zero,8(sp)
     5de:	c602                	sw	zero,12(sp)
     5e0:	c802                	sw	zero,16(sp)
     5e2:	ca02                	sw	zero,20(sp)
     5e4:	cc02                	sw	zero,24(sp)
     5e6:	ce02                	sw	zero,28(sp)
     5e8:	552010ef          	jal	ra,1b3a <RCC_APB2PeriphClockCmd>
     5ec:	4585                	li	a1,1
     5ee:	00200537          	lui	a0,0x200
     5f2:	566010ef          	jal	ra,1b58 <RCC_APB1PeriphClockCmd>
     5f6:	400114b7          	lui	s1,0x40011
     5fa:	40000413          	li	s0,1024
     5fe:	49f1                	li	s3,28
     600:	4905                	li	s2,1
     602:	004c                	addi	a1,sp,4
     604:	80048513          	addi	a0,s1,-2048 # 40010800 <__freertos_irq_stack_top+0x2000b800>
     608:	c222                	sw	s0,4(sp)
     60a:	c64e                	sw	s3,12(sp)
     60c:	c44a                	sw	s2,8(sp)
     60e:	1dc010ef          	jal	ra,17ea <GPIO_Init>
     612:	6785                	lui	a5,0x1
     614:	80078793          	addi	a5,a5,-2048 # 800 <__stack_size>
     618:	004c                	addi	a1,sp,4
     61a:	80048513          	addi	a0,s1,-2048
     61e:	c23e                	sw	a5,4(sp)
     620:	c64e                	sw	s3,12(sp)
     622:	c44a                	sw	s2,8(sp)
     624:	1c6010ef          	jal	ra,17ea <GPIO_Init>
     628:	bfff07b7          	lui	a5,0xbfff0
     62c:	85e0                	sh	s0,26(sp)
     62e:	40005437          	lui	s0,0x40005
     632:	ca3e                	sw	a5,20(sp)
     634:	080c                	addi	a1,sp,16
     636:	6791                	lui	a5,0x4
     638:	40040513          	addi	a0,s0,1024 # 40005400 <__freertos_irq_stack_top+0x20000400>
     63c:	86fc                	sh	a5,28(sp)
     63e:	c852                	sw	s4,16(sp)
     640:	318010ef          	jal	ra,1958 <I2C_Init>
     644:	40040513          	addi	a0,s0,1024
     648:	4585                	li	a1,1
     64a:	3dc010ef          	jal	ra,1a26 <I2C_Cmd>
     64e:	4585                	li	a1,1
     650:	40040513          	addi	a0,s0,1024
     654:	41e010ef          	jal	ra,1a72 <I2C_AcknowledgeConfig>
     658:	6105                	addi	sp,sp,32
     65a:	bbf9                	j	438 <__riscv_restore_4>

0000065c <vReadEeprom>:
     65c:	da9ff2ef          	jal	t0,404 <__riscv_save_4>
     660:	400054b7          	lui	s1,0x40005
     664:	842a                	mv	s0,a0
     666:	8a2e                	mv	s4,a1
     668:	8932                	mv	s2,a2
     66a:	40048993          	addi	s3,s1,1024 # 40005400 <__freertos_irq_stack_top+0x20000400>
     66e:	000205b7          	lui	a1,0x20
     672:	854e                	mv	a0,s3
     674:	44c010ef          	jal	ra,1ac0 <I2C_GetFlagStatus>
     678:	f97d                	bnez	a0,66e <vReadEeprom+0x12>
     67a:	40048513          	addi	a0,s1,1024
     67e:	4585                	li	a1,1
     680:	3f2010ef          	jal	ra,1a72 <I2C_AcknowledgeConfig>
     684:	40048513          	addi	a0,s1,1024
     688:	4585                	li	a1,1
     68a:	000304b7          	lui	s1,0x30
     68e:	400059b7          	lui	s3,0x40005
     692:	3ac010ef          	jal	ra,1a3e <I2C_GenerateSTART>
     696:	0485                	addi	s1,s1,1
     698:	40098a93          	addi	s5,s3,1024 # 40005400 <__freertos_irq_stack_top+0x20000400>
     69c:	85a6                	mv	a1,s1
     69e:	8556                	mv	a0,s5
     6a0:	40a010ef          	jal	ra,1aaa <I2C_CheckEvent>
     6a4:	dd65                	beqz	a0,69c <vReadEeprom+0x40>
     6a6:	40098513          	addi	a0,s3,1024
     6aa:	4601                	li	a2,0
     6ac:	0ae00593          	li	a1,174
     6b0:	000704b7          	lui	s1,0x70
     6b4:	400059b7          	lui	s3,0x40005
     6b8:	3e0010ef          	jal	ra,1a98 <I2C_Send7bitAddress>
     6bc:	08248493          	addi	s1,s1,130 # 70082 <_data_lma+0x6b72a>
     6c0:	40098a93          	addi	s5,s3,1024 # 40005400 <__freertos_irq_stack_top+0x20000400>
     6c4:	85a6                	mv	a1,s1
     6c6:	8556                	mv	a0,s5
     6c8:	3e2010ef          	jal	ra,1aaa <I2C_CheckEvent>
     6cc:	dd65                	beqz	a0,6c4 <vReadEeprom+0x68>
     6ce:	010a5593          	srli	a1,s4,0x10
     6d2:	40098513          	addi	a0,s3,1024
     6d6:	0ff5f593          	andi	a1,a1,255
     6da:	000704b7          	lui	s1,0x70
     6de:	400059b7          	lui	s3,0x40005
     6e2:	3aa010ef          	jal	ra,1a8c <I2C_SendData>
     6e6:	08448493          	addi	s1,s1,132 # 70084 <_data_lma+0x6b72c>
     6ea:	40098a93          	addi	s5,s3,1024 # 40005400 <__freertos_irq_stack_top+0x20000400>
     6ee:	85a6                	mv	a1,s1
     6f0:	8556                	mv	a0,s5
     6f2:	3b8010ef          	jal	ra,1aaa <I2C_CheckEvent>
     6f6:	dd65                	beqz	a0,6ee <vReadEeprom+0x92>
     6f8:	0ffa7593          	andi	a1,s4,255
     6fc:	40098513          	addi	a0,s3,1024
     700:	000704b7          	lui	s1,0x70
     704:	400059b7          	lui	s3,0x40005
     708:	384010ef          	jal	ra,1a8c <I2C_SendData>
     70c:	08448493          	addi	s1,s1,132 # 70084 <_data_lma+0x6b72c>
     710:	40098a13          	addi	s4,s3,1024 # 40005400 <__freertos_irq_stack_top+0x20000400>
     714:	85a6                	mv	a1,s1
     716:	8552                	mv	a0,s4
     718:	392010ef          	jal	ra,1aaa <I2C_CheckEvent>
     71c:	dd65                	beqz	a0,714 <vReadEeprom+0xb8>
     71e:	40098513          	addi	a0,s3,1024
     722:	4585                	li	a1,1
     724:	000304b7          	lui	s1,0x30
     728:	400059b7          	lui	s3,0x40005
     72c:	312010ef          	jal	ra,1a3e <I2C_GenerateSTART>
     730:	0485                	addi	s1,s1,1
     732:	40098a13          	addi	s4,s3,1024 # 40005400 <__freertos_irq_stack_top+0x20000400>
     736:	85a6                	mv	a1,s1
     738:	8552                	mv	a0,s4
     73a:	370010ef          	jal	ra,1aaa <I2C_CheckEvent>
     73e:	dd65                	beqz	a0,736 <vReadEeprom+0xda>
     740:	40098513          	addi	a0,s3,1024
     744:	4605                	li	a2,1
     746:	0ae00593          	li	a1,174
     74a:	000309b7          	lui	s3,0x30
     74e:	400054b7          	lui	s1,0x40005
     752:	346010ef          	jal	ra,1a98 <I2C_Send7bitAddress>
     756:	0989                	addi	s3,s3,2
     758:	40048493          	addi	s1,s1,1024 # 40005400 <__freertos_irq_stack_top+0x20000400>
     75c:	85ce                	mv	a1,s3
     75e:	8526                	mv	a0,s1
     760:	34a010ef          	jal	ra,1aaa <I2C_CheckEvent>
     764:	dd65                	beqz	a0,75c <vReadEeprom+0x100>
     766:	400054b7          	lui	s1,0x40005
     76a:	100009b7          	lui	s3,0x10000
     76e:	9922                	add	s2,s2,s0
     770:	4a05                	li	s4,1
     772:	40048493          	addi	s1,s1,1024 # 40005400 <__freertos_irq_stack_top+0x20000400>
     776:	04098993          	addi	s3,s3,64 # 10000040 <_data_lma+0xfffb6e8>
     77a:	408907b3          	sub	a5,s2,s0
     77e:	04fa6363          	bltu	s4,a5,7c4 <vReadEeprom+0x168>
     782:	40005537          	lui	a0,0x40005
     786:	4581                	li	a1,0
     788:	40050513          	addi	a0,a0,1024 # 40005400 <__freertos_irq_stack_top+0x20000400>
     78c:	10000937          	lui	s2,0x10000
     790:	400054b7          	lui	s1,0x40005
     794:	2de010ef          	jal	ra,1a72 <I2C_AcknowledgeConfig>
     798:	04090913          	addi	s2,s2,64 # 10000040 <_data_lma+0xfffb6e8>
     79c:	40048a13          	addi	s4,s1,1024 # 40005400 <__freertos_irq_stack_top+0x20000400>
     7a0:	4985                	li	s3,1
     7a2:	85ca                	mv	a1,s2
     7a4:	8552                	mv	a0,s4
     7a6:	31a010ef          	jal	ra,1ac0 <I2C_GetFlagStatus>
     7aa:	ff351ce3          	bne	a0,s3,7a2 <vReadEeprom+0x146>
     7ae:	40048513          	addi	a0,s1,1024
     7b2:	2de010ef          	jal	ra,1a90 <I2C_ReceiveData>
     7b6:	a008                	sb	a0,0(s0)
     7b8:	4585                	li	a1,1
     7ba:	40048513          	addi	a0,s1,1024
     7be:	29a010ef          	jal	ra,1a58 <I2C_GenerateSTOP>
     7c2:	b99d                	j	438 <__riscv_restore_4>
     7c4:	4585                	li	a1,1
     7c6:	8526                	mv	a0,s1
     7c8:	2aa010ef          	jal	ra,1a72 <I2C_AcknowledgeConfig>
     7cc:	85ce                	mv	a1,s3
     7ce:	8526                	mv	a0,s1
     7d0:	2f0010ef          	jal	ra,1ac0 <I2C_GetFlagStatus>
     7d4:	ff451ce3          	bne	a0,s4,7cc <vReadEeprom+0x170>
     7d8:	8526                	mv	a0,s1
     7da:	0405                	addi	s0,s0,1
     7dc:	2b4010ef          	jal	ra,1a90 <I2C_ReceiveData>
     7e0:	fea40fa3          	sb	a0,-1(s0)
     7e4:	bf59                	j	77a <vReadEeprom+0x11e>

000007e6 <vWriteEeprom>:
     7e6:	c1fff2ef          	jal	t0,404 <__riscv_save_4>
     7ea:	400054b7          	lui	s1,0x40005
     7ee:	842a                	mv	s0,a0
     7f0:	8a2e                	mv	s4,a1
     7f2:	8932                	mv	s2,a2
     7f4:	40048993          	addi	s3,s1,1024 # 40005400 <__freertos_irq_stack_top+0x20000400>
     7f8:	000205b7          	lui	a1,0x20
     7fc:	854e                	mv	a0,s3
     7fe:	2c2010ef          	jal	ra,1ac0 <I2C_GetFlagStatus>
     802:	f97d                	bnez	a0,7f8 <vWriteEeprom+0x12>
     804:	40048513          	addi	a0,s1,1024
     808:	4585                	li	a1,1
     80a:	000304b7          	lui	s1,0x30
     80e:	400059b7          	lui	s3,0x40005
     812:	22c010ef          	jal	ra,1a3e <I2C_GenerateSTART>
     816:	0485                	addi	s1,s1,1
     818:	40098a93          	addi	s5,s3,1024 # 40005400 <__freertos_irq_stack_top+0x20000400>
     81c:	85a6                	mv	a1,s1
     81e:	8556                	mv	a0,s5
     820:	28a010ef          	jal	ra,1aaa <I2C_CheckEvent>
     824:	dd65                	beqz	a0,81c <__stack_size+0x1c>
     826:	40098513          	addi	a0,s3,1024
     82a:	4601                	li	a2,0
     82c:	0ae00593          	li	a1,174
     830:	000704b7          	lui	s1,0x70
     834:	400059b7          	lui	s3,0x40005
     838:	260010ef          	jal	ra,1a98 <I2C_Send7bitAddress>
     83c:	08248493          	addi	s1,s1,130 # 70082 <_data_lma+0x6b72a>
     840:	40098a93          	addi	s5,s3,1024 # 40005400 <__freertos_irq_stack_top+0x20000400>
     844:	85a6                	mv	a1,s1
     846:	8556                	mv	a0,s5
     848:	262010ef          	jal	ra,1aaa <I2C_CheckEvent>
     84c:	dd65                	beqz	a0,844 <__stack_size+0x44>
     84e:	010a5593          	srli	a1,s4,0x10
     852:	40098513          	addi	a0,s3,1024
     856:	0ff5f593          	andi	a1,a1,255
     85a:	000704b7          	lui	s1,0x70
     85e:	400059b7          	lui	s3,0x40005
     862:	22a010ef          	jal	ra,1a8c <I2C_SendData>
     866:	08448493          	addi	s1,s1,132 # 70084 <_data_lma+0x6b72c>
     86a:	40098a93          	addi	s5,s3,1024 # 40005400 <__freertos_irq_stack_top+0x20000400>
     86e:	85a6                	mv	a1,s1
     870:	8556                	mv	a0,s5
     872:	238010ef          	jal	ra,1aaa <I2C_CheckEvent>
     876:	dd65                	beqz	a0,86e <__stack_size+0x6e>
     878:	40098513          	addi	a0,s3,1024
     87c:	0ffa7593          	andi	a1,s4,255
     880:	000709b7          	lui	s3,0x70
     884:	400054b7          	lui	s1,0x40005
     888:	204010ef          	jal	ra,1a8c <I2C_SendData>
     88c:	08498993          	addi	s3,s3,132 # 70084 <_data_lma+0x6b72c>
     890:	40048493          	addi	s1,s1,1024 # 40005400 <__freertos_irq_stack_top+0x20000400>
     894:	85ce                	mv	a1,s3
     896:	8526                	mv	a0,s1
     898:	212010ef          	jal	ra,1aaa <I2C_CheckEvent>
     89c:	dd65                	beqz	a0,894 <__stack_size+0x94>
     89e:	400054b7          	lui	s1,0x40005
     8a2:	000709b7          	lui	s3,0x70
     8a6:	9922                	add	s2,s2,s0
     8a8:	40048493          	addi	s1,s1,1024 # 40005400 <__freertos_irq_stack_top+0x20000400>
     8ac:	08498993          	addi	s3,s3,132 # 70084 <_data_lma+0x6b72c>
     8b0:	01241a63          	bne	s0,s2,8c4 <__stack_size+0xc4>
     8b4:	40005537          	lui	a0,0x40005
     8b8:	4585                	li	a1,1
     8ba:	40050513          	addi	a0,a0,1024 # 40005400 <__freertos_irq_stack_top+0x20000400>
     8be:	19a010ef          	jal	ra,1a58 <I2C_GenerateSTOP>
     8c2:	be9d                	j	438 <__riscv_restore_4>
     8c4:	0405                	addi	s0,s0,1
     8c6:	fff44583          	lbu	a1,-1(s0)
     8ca:	8526                	mv	a0,s1
     8cc:	1c0010ef          	jal	ra,1a8c <I2C_SendData>
     8d0:	85ce                	mv	a1,s3
     8d2:	8526                	mv	a0,s1
     8d4:	1d6010ef          	jal	ra,1aaa <I2C_CheckEvent>
     8d8:	dd65                	beqz	a0,8d0 <__stack_size+0xd0>
     8da:	bfd9                	j	8b0 <__stack_size+0xb0>

000008dc <SaveStructToEEPROM>:
     8dc:	b43ff2ef          	jal	t0,41e <__riscv_save_0>
     8e0:	1141                	addi	sp,sp,-16
     8e2:	c42a                	sw	a0,8(sp)
     8e4:	c62e                	sw	a1,12(sp)
     8e6:	0028                	addi	a0,sp,8
     8e8:	461d                	li	a2,7
     8ea:	4581                	li	a1,0
     8ec:	3ded                	jal	7e6 <vWriteEeprom>
     8ee:	0141                	addi	sp,sp,16
     8f0:	be89                	j	442 <__riscv_restore_0>

000008f2 <LoadStructFromEEPROM>:
     8f2:	b2dff2ef          	jal	t0,41e <__riscv_save_0>
     8f6:	1141                	addi	sp,sp,-16
     8f8:	0028                	addi	a0,sp,8
     8fa:	461d                	li	a2,7
     8fc:	4581                	li	a1,0
     8fe:	3bb9                	jal	65c <vReadEeprom>
     900:	8714                	lbu	a3,14(sp)
     902:	8690                	lbu	a2,13(sp)
     904:	860c                	lbu	a1,12(sp)
     906:	00004537          	lui	a0,0x4
     90a:	68450513          	addi	a0,a0,1668 # 4684 <_read+0x58>
     90e:	2ff020ef          	jal	ra,340c <iprintf>
     912:	0141                	addi	sp,sp,16
     914:	b63d                	j	442 <__riscv_restore_0>

00000916 <e_rom_test>:
     916:	b09ff2ef          	jal	t0,41e <__riscv_save_0>
     91a:	00004537          	lui	a0,0x4
     91e:	1101                	addi	sp,sp,-32
     920:	69450513          	addi	a0,a0,1684 # 4694 <_read+0x68>
     924:	3fd020ef          	jal	ra,3520 <puts>
     928:	00004537          	lui	a0,0x4
     92c:	6ac50513          	addi	a0,a0,1708 # 46ac <_read+0x80>
     930:	3f1020ef          	jal	ra,3520 <puts>
     934:	4651                	li	a2,20
     936:	45a9                	li	a1,10
     938:	850a                	mv	a0,sp
     93a:	330d                	jal	65c <vReadEeprom>
     93c:	00004537          	lui	a0,0x4
     940:	6c450513          	addi	a0,a0,1732 # 46c4 <_read+0x98>
     944:	3dd020ef          	jal	ra,3520 <puts>
     948:	00004537          	lui	a0,0x4
     94c:	858a                	mv	a1,sp
     94e:	6dc50513          	addi	a0,a0,1756 # 46dc <_read+0xb0>
     952:	2bb020ef          	jal	ra,340c <iprintf>
     956:	6105                	addi	sp,sp,32
     958:	b4ed                	j	442 <__riscv_restore_0>

0000095a <pinMode>:
     95a:	47fd                	li	a5,31
     95c:	04a7e663          	bltu	a5,a0,9a8 <pinMode+0x4e>
     960:	40021737          	lui	a4,0x40021
     964:	4f1c                	lw	a5,24(a4)
     966:	0047e793          	ori	a5,a5,4
     96a:	cf1c                	sw	a5,24(a4)
     96c:	c1d5                	beqz	a1,a10 <pinMode+0xb6>
     96e:	4785                	li	a5,1
     970:	40f59363          	bne	a1,a5,d76 <pinMode+0x41c>
     974:	479d                	li	a5,7
     976:	04a7e763          	bltu	a5,a0,9c4 <pinMode+0x6a>
     97a:	40011737          	lui	a4,0x40011
     97e:	80072683          	lw	a3,-2048(a4) # 40010800 <__freertos_irq_stack_top+0x2000b800>
     982:	00251613          	slli	a2,a0,0x2
     986:	47bd                	li	a5,15
     988:	00c797b3          	sll	a5,a5,a2
     98c:	fff7c793          	not	a5,a5
     990:	8ff5                	and	a5,a5,a3
     992:	46a1                	li	a3,8
     994:	00c696b3          	sll	a3,a3,a2
     998:	8fd5                	or	a5,a5,a3
     99a:	80f72023          	sw	a5,-2048(a4)
     99e:	00a59533          	sll	a0,a1,a0
     9a2:	80a72823          	sw	a0,-2032(a4)
     9a6:	8082                	ret
     9a8:	03f00793          	li	a5,63
     9ac:	04a7e863          	bltu	a5,a0,9fc <pinMode+0xa2>
     9b0:	40021737          	lui	a4,0x40021
     9b4:	4f1c                	lw	a5,24(a4)
     9b6:	0087e793          	ori	a5,a5,8
     9ba:	cf1c                	sw	a5,24(a4)
     9bc:	c9d5                	beqz	a1,a70 <pinMode+0x116>
     9be:	4785                	li	a5,1
     9c0:	3af59b63          	bne	a1,a5,d76 <pinMode+0x41c>
     9c4:	ff850713          	addi	a4,a0,-8
     9c8:	0ff77713          	andi	a4,a4,255
     9cc:	479d                	li	a5,7
     9ce:	20e7e263          	bltu	a5,a4,bd2 <pinMode+0x278>
     9d2:	40011737          	lui	a4,0x40011
     9d6:	00251693          	slli	a3,a0,0x2
     9da:	80472603          	lw	a2,-2044(a4) # 40010804 <__freertos_irq_stack_top+0x2000b804>
     9de:	8af1                	andi	a3,a3,28
     9e0:	47bd                	li	a5,15
     9e2:	00d797b3          	sll	a5,a5,a3
     9e6:	fff7c793          	not	a5,a5
     9ea:	8ff1                	and	a5,a5,a2
     9ec:	4621                	li	a2,8
     9ee:	00d616b3          	sll	a3,a2,a3
     9f2:	8fd5                	or	a5,a5,a3
     9f4:	80f72223          	sw	a5,-2044(a4)
     9f8:	4585                	li	a1,1
     9fa:	b755                	j	99e <pinMode+0x44>
     9fc:	05f00793          	li	a5,95
     a00:	faa7eee3          	bltu	a5,a0,9bc <pinMode+0x62>
     a04:	40021737          	lui	a4,0x40021
     a08:	4f1c                	lw	a5,24(a4)
     a0a:	0107e793          	ori	a5,a5,16
     a0e:	b775                	j	9ba <pinMode+0x60>
     a10:	471d                	li	a4,7
     a12:	02a76563          	bltu	a4,a0,a3c <pinMode+0xe2>
     a16:	40011737          	lui	a4,0x40011
     a1a:	00251593          	slli	a1,a0,0x2
     a1e:	80072683          	lw	a3,-2048(a4) # 40010800 <__freertos_irq_stack_top+0x2000b800>
     a22:	47bd                	li	a5,15
     a24:	00b797b3          	sll	a5,a5,a1
     a28:	fff7c793          	not	a5,a5
     a2c:	8ff5                	and	a5,a5,a3
     a2e:	4511                	li	a0,4
     a30:	00b51533          	sll	a0,a0,a1
     a34:	8d5d                	or	a0,a0,a5
     a36:	80a72023          	sw	a0,-2048(a4)
     a3a:	8082                	ret
     a3c:	ff850793          	addi	a5,a0,-8
     a40:	0ff7f793          	andi	a5,a5,255
     a44:	02f76663          	bltu	a4,a5,a70 <pinMode+0x116>
     a48:	050a                	slli	a0,a0,0x2
     a4a:	400117b7          	lui	a5,0x40011
     a4e:	8047a703          	lw	a4,-2044(a5) # 40010804 <__freertos_irq_stack_top+0x2000b804>
     a52:	01c57593          	andi	a1,a0,28
     a56:	453d                	li	a0,15
     a58:	00b51533          	sll	a0,a0,a1
     a5c:	fff54513          	not	a0,a0
     a60:	8d79                	and	a0,a0,a4
     a62:	4711                	li	a4,4
     a64:	00b715b3          	sll	a1,a4,a1
     a68:	8d4d                	or	a0,a0,a1
     a6a:	80a7a223          	sw	a0,-2044(a5)
     a6e:	8082                	ret
     a70:	ff050713          	addi	a4,a0,-16
     a74:	0ff77713          	andi	a4,a4,255
     a78:	479d                	li	a5,7
     a7a:	02e7e663          	bltu	a5,a4,aa6 <pinMode+0x14c>
     a7e:	050a                	slli	a0,a0,0x2
     a80:	400117b7          	lui	a5,0x40011
     a84:	81c7a703          	lw	a4,-2020(a5) # 4001081c <__freertos_irq_stack_top+0x2000b81c>
     a88:	01c57593          	andi	a1,a0,28
     a8c:	453d                	li	a0,15
     a8e:	00b51533          	sll	a0,a0,a1
     a92:	fff54513          	not	a0,a0
     a96:	8d79                	and	a0,a0,a4
     a98:	4711                	li	a4,4
     a9a:	00b715b3          	sll	a1,a4,a1
     a9e:	8d4d                	or	a0,a0,a1
     aa0:	80a7ae23          	sw	a0,-2020(a5)
     aa4:	8082                	ret
     aa6:	fe050713          	addi	a4,a0,-32
     aaa:	0ff77713          	andi	a4,a4,255
     aae:	02e7e663          	bltu	a5,a4,ada <pinMode+0x180>
     ab2:	050a                	slli	a0,a0,0x2
     ab4:	40011737          	lui	a4,0x40011
     ab8:	c0072783          	lw	a5,-1024(a4) # 40010c00 <__freertos_irq_stack_top+0x2000bc00>
     abc:	01c57593          	andi	a1,a0,28
     ac0:	453d                	li	a0,15
     ac2:	00b51533          	sll	a0,a0,a1
     ac6:	fff54513          	not	a0,a0
     aca:	8d7d                	and	a0,a0,a5
     acc:	4791                	li	a5,4
     ace:	00b795b3          	sll	a1,a5,a1
     ad2:	8d4d                	or	a0,a0,a1
     ad4:	c0a72023          	sw	a0,-1024(a4)
     ad8:	8082                	ret
     ada:	fd850713          	addi	a4,a0,-40
     ade:	0ff77713          	andi	a4,a4,255
     ae2:	02e7e663          	bltu	a5,a4,b0e <pinMode+0x1b4>
     ae6:	050a                	slli	a0,a0,0x2
     ae8:	400117b7          	lui	a5,0x40011
     aec:	c047a703          	lw	a4,-1020(a5) # 40010c04 <__freertos_irq_stack_top+0x2000bc04>
     af0:	01c57593          	andi	a1,a0,28
     af4:	453d                	li	a0,15
     af6:	00b51533          	sll	a0,a0,a1
     afa:	fff54513          	not	a0,a0
     afe:	8d79                	and	a0,a0,a4
     b00:	4711                	li	a4,4
     b02:	00b715b3          	sll	a1,a4,a1
     b06:	8d4d                	or	a0,a0,a1
     b08:	c0a7a223          	sw	a0,-1020(a5)
     b0c:	8082                	ret
     b0e:	fd050713          	addi	a4,a0,-48
     b12:	0ff77713          	andi	a4,a4,255
     b16:	02e7e663          	bltu	a5,a4,b42 <pinMode+0x1e8>
     b1a:	050a                	slli	a0,a0,0x2
     b1c:	400117b7          	lui	a5,0x40011
     b20:	c1c7a703          	lw	a4,-996(a5) # 40010c1c <__freertos_irq_stack_top+0x2000bc1c>
     b24:	01c57593          	andi	a1,a0,28
     b28:	453d                	li	a0,15
     b2a:	00b51533          	sll	a0,a0,a1
     b2e:	fff54513          	not	a0,a0
     b32:	8d79                	and	a0,a0,a4
     b34:	4711                	li	a4,4
     b36:	00b715b3          	sll	a1,a4,a1
     b3a:	8d4d                	or	a0,a0,a1
     b3c:	c0a7ae23          	sw	a0,-996(a5)
     b40:	8082                	ret
     b42:	fc050713          	addi	a4,a0,-64
     b46:	0ff77713          	andi	a4,a4,255
     b4a:	02e7e463          	bltu	a5,a4,b72 <pinMode+0x218>
     b4e:	050a                	slli	a0,a0,0x2
     b50:	40011737          	lui	a4,0x40011
     b54:	431c                	lw	a5,0(a4)
     b56:	01c57593          	andi	a1,a0,28
     b5a:	453d                	li	a0,15
     b5c:	00b51533          	sll	a0,a0,a1
     b60:	fff54513          	not	a0,a0
     b64:	8d7d                	and	a0,a0,a5
     b66:	4791                	li	a5,4
     b68:	00b795b3          	sll	a1,a5,a1
     b6c:	8d4d                	or	a0,a0,a1
     b6e:	c308                	sw	a0,0(a4)
     b70:	8082                	ret
     b72:	fb850713          	addi	a4,a0,-72
     b76:	0ff77713          	andi	a4,a4,255
     b7a:	02e7e463          	bltu	a5,a4,ba2 <pinMode+0x248>
     b7e:	050a                	slli	a0,a0,0x2
     b80:	40011737          	lui	a4,0x40011
     b84:	435c                	lw	a5,4(a4)
     b86:	01c57593          	andi	a1,a0,28
     b8a:	453d                	li	a0,15
     b8c:	00b51533          	sll	a0,a0,a1
     b90:	fff54513          	not	a0,a0
     b94:	8d7d                	and	a0,a0,a5
     b96:	4791                	li	a5,4
     b98:	00b795b3          	sll	a1,a5,a1
     b9c:	8d4d                	or	a0,a0,a1
     b9e:	c348                	sw	a0,4(a4)
     ba0:	8082                	ret
     ba2:	fb050713          	addi	a4,a0,-80
     ba6:	0ff77713          	andi	a4,a4,255
     baa:	32e7ef63          	bltu	a5,a4,ee8 <pinMode+0x58e>
     bae:	050a                	slli	a0,a0,0x2
     bb0:	40011737          	lui	a4,0x40011
     bb4:	4f5c                	lw	a5,28(a4)
     bb6:	01c57593          	andi	a1,a0,28
     bba:	453d                	li	a0,15
     bbc:	00b51533          	sll	a0,a0,a1
     bc0:	fff54513          	not	a0,a0
     bc4:	8d7d                	and	a0,a0,a5
     bc6:	4791                	li	a5,4
     bc8:	00b795b3          	sll	a1,a5,a1
     bcc:	8d4d                	or	a0,a0,a1
     bce:	cf48                	sw	a0,28(a4)
     bd0:	8082                	ret
     bd2:	ff050713          	addi	a4,a0,-16
     bd6:	0ff77713          	andi	a4,a4,255
     bda:	02e7ec63          	bltu	a5,a4,c12 <pinMode+0x2b8>
     bde:	40011737          	lui	a4,0x40011
     be2:	00251693          	slli	a3,a0,0x2
     be6:	81c72603          	lw	a2,-2020(a4) # 4001081c <__freertos_irq_stack_top+0x2000b81c>
     bea:	8af1                	andi	a3,a3,28
     bec:	47bd                	li	a5,15
     bee:	00d797b3          	sll	a5,a5,a3
     bf2:	fff7c793          	not	a5,a5
     bf6:	8ff1                	and	a5,a5,a2
     bf8:	4621                	li	a2,8
     bfa:	00d616b3          	sll	a3,a2,a3
     bfe:	8fd5                	or	a5,a5,a3
     c00:	80f72e23          	sw	a5,-2020(a4)
     c04:	893d                	andi	a0,a0,15
     c06:	4785                	li	a5,1
     c08:	00a79533          	sll	a0,a5,a0
     c0c:	82a72023          	sw	a0,-2016(a4)
     c10:	8082                	ret
     c12:	fe050713          	addi	a4,a0,-32
     c16:	0ff77713          	andi	a4,a4,255
     c1a:	02e7ec63          	bltu	a5,a4,c52 <pinMode+0x2f8>
     c1e:	400116b7          	lui	a3,0x40011
     c22:	00251713          	slli	a4,a0,0x2
     c26:	c006a603          	lw	a2,-1024(a3) # 40010c00 <__freertos_irq_stack_top+0x2000bc00>
     c2a:	8b71                	andi	a4,a4,28
     c2c:	47bd                	li	a5,15
     c2e:	00e797b3          	sll	a5,a5,a4
     c32:	fff7c793          	not	a5,a5
     c36:	8ff1                	and	a5,a5,a2
     c38:	4621                	li	a2,8
     c3a:	00e61733          	sll	a4,a2,a4
     c3e:	8fd9                	or	a5,a5,a4
     c40:	c0f6a023          	sw	a5,-1024(a3)
     c44:	893d                	andi	a0,a0,15
     c46:	4785                	li	a5,1
     c48:	00a79533          	sll	a0,a5,a0
     c4c:	c0a6a823          	sw	a0,-1008(a3)
     c50:	8082                	ret
     c52:	fd850713          	addi	a4,a0,-40
     c56:	0ff77713          	andi	a4,a4,255
     c5a:	02e7ec63          	bltu	a5,a4,c92 <pinMode+0x338>
     c5e:	40011737          	lui	a4,0x40011
     c62:	00251693          	slli	a3,a0,0x2
     c66:	c0472603          	lw	a2,-1020(a4) # 40010c04 <__freertos_irq_stack_top+0x2000bc04>
     c6a:	8af1                	andi	a3,a3,28
     c6c:	47bd                	li	a5,15
     c6e:	00d797b3          	sll	a5,a5,a3
     c72:	fff7c793          	not	a5,a5
     c76:	8ff1                	and	a5,a5,a2
     c78:	4621                	li	a2,8
     c7a:	00d616b3          	sll	a3,a2,a3
     c7e:	8fd5                	or	a5,a5,a3
     c80:	c0f72223          	sw	a5,-1020(a4)
     c84:	893d                	andi	a0,a0,15
     c86:	4785                	li	a5,1
     c88:	00a79533          	sll	a0,a5,a0
     c8c:	c0a72823          	sw	a0,-1008(a4)
     c90:	8082                	ret
     c92:	fd050713          	addi	a4,a0,-48
     c96:	0ff77713          	andi	a4,a4,255
     c9a:	02e7ec63          	bltu	a5,a4,cd2 <pinMode+0x378>
     c9e:	40011737          	lui	a4,0x40011
     ca2:	00251693          	slli	a3,a0,0x2
     ca6:	c1c72603          	lw	a2,-996(a4) # 40010c1c <__freertos_irq_stack_top+0x2000bc1c>
     caa:	8af1                	andi	a3,a3,28
     cac:	47bd                	li	a5,15
     cae:	00d797b3          	sll	a5,a5,a3
     cb2:	fff7c793          	not	a5,a5
     cb6:	8ff1                	and	a5,a5,a2
     cb8:	4621                	li	a2,8
     cba:	00d616b3          	sll	a3,a2,a3
     cbe:	8fd5                	or	a5,a5,a3
     cc0:	c0f72e23          	sw	a5,-996(a4)
     cc4:	893d                	andi	a0,a0,15
     cc6:	4785                	li	a5,1
     cc8:	00a79533          	sll	a0,a5,a0
     ccc:	c2a72023          	sw	a0,-992(a4)
     cd0:	8082                	ret
     cd2:	fc050713          	addi	a4,a0,-64
     cd6:	0ff77713          	andi	a4,a4,255
     cda:	02e7e963          	bltu	a5,a4,d0c <pinMode+0x3b2>
     cde:	400116b7          	lui	a3,0x40011
     ce2:	00251713          	slli	a4,a0,0x2
     ce6:	4290                	lw	a2,0(a3)
     ce8:	8b71                	andi	a4,a4,28
     cea:	47bd                	li	a5,15
     cec:	00e797b3          	sll	a5,a5,a4
     cf0:	fff7c793          	not	a5,a5
     cf4:	8ff1                	and	a5,a5,a2
     cf6:	4621                	li	a2,8
     cf8:	00e61733          	sll	a4,a2,a4
     cfc:	8fd9                	or	a5,a5,a4
     cfe:	c29c                	sw	a5,0(a3)
     d00:	893d                	andi	a0,a0,15
     d02:	4785                	li	a5,1
     d04:	00a79533          	sll	a0,a5,a0
     d08:	ca88                	sw	a0,16(a3)
     d0a:	8082                	ret
     d0c:	fb850713          	addi	a4,a0,-72
     d10:	0ff77713          	andi	a4,a4,255
     d14:	02e7e463          	bltu	a5,a4,d3c <pinMode+0x3e2>
     d18:	400116b7          	lui	a3,0x40011
     d1c:	00251713          	slli	a4,a0,0x2
     d20:	42d0                	lw	a2,4(a3)
     d22:	8b71                	andi	a4,a4,28
     d24:	47bd                	li	a5,15
     d26:	00e797b3          	sll	a5,a5,a4
     d2a:	fff7c793          	not	a5,a5
     d2e:	8ff1                	and	a5,a5,a2
     d30:	4621                	li	a2,8
     d32:	00e61733          	sll	a4,a2,a4
     d36:	8fd9                	or	a5,a5,a4
     d38:	c2dc                	sw	a5,4(a3)
     d3a:	b7d9                	j	d00 <pinMode+0x3a6>
     d3c:	fb050713          	addi	a4,a0,-80
     d40:	0ff77713          	andi	a4,a4,255
     d44:	1ae7e263          	bltu	a5,a4,ee8 <pinMode+0x58e>
     d48:	400116b7          	lui	a3,0x40011
     d4c:	00251713          	slli	a4,a0,0x2
     d50:	4ed0                	lw	a2,28(a3)
     d52:	8b71                	andi	a4,a4,28
     d54:	47bd                	li	a5,15
     d56:	00e797b3          	sll	a5,a5,a4
     d5a:	fff7c793          	not	a5,a5
     d5e:	8ff1                	and	a5,a5,a2
     d60:	4621                	li	a2,8
     d62:	00e61733          	sll	a4,a2,a4
     d66:	8fd9                	or	a5,a5,a4
     d68:	cedc                	sw	a5,28(a3)
     d6a:	893d                	andi	a0,a0,15
     d6c:	4785                	li	a5,1
     d6e:	00a79533          	sll	a0,a5,a0
     d72:	d288                	sw	a0,32(a3)
     d74:	8082                	ret
     d76:	4789                	li	a5,2
     d78:	16f59863          	bne	a1,a5,ee8 <pinMode+0x58e>
     d7c:	479d                	li	a5,7
     d7e:	02a7e063          	bltu	a5,a0,d9e <pinMode+0x444>
     d82:	40011737          	lui	a4,0x40011
     d86:	00251593          	slli	a1,a0,0x2
     d8a:	80072683          	lw	a3,-2048(a4) # 40010800 <__freertos_irq_stack_top+0x2000b800>
     d8e:	47bd                	li	a5,15
     d90:	00b797b3          	sll	a5,a5,a1
     d94:	fff7c793          	not	a5,a5
     d98:	8ff5                	and	a5,a5,a3
     d9a:	450d                	li	a0,3
     d9c:	b951                	j	a30 <pinMode+0xd6>
     d9e:	ff850713          	addi	a4,a0,-8
     da2:	0ff77713          	andi	a4,a4,255
     da6:	02e7e163          	bltu	a5,a4,dc8 <pinMode+0x46e>
     daa:	050a                	slli	a0,a0,0x2
     dac:	400117b7          	lui	a5,0x40011
     db0:	8047a703          	lw	a4,-2044(a5) # 40010804 <__freertos_irq_stack_top+0x2000b804>
     db4:	01c57593          	andi	a1,a0,28
     db8:	453d                	li	a0,15
     dba:	00b51533          	sll	a0,a0,a1
     dbe:	fff54513          	not	a0,a0
     dc2:	8d79                	and	a0,a0,a4
     dc4:	470d                	li	a4,3
     dc6:	b979                	j	a64 <pinMode+0x10a>
     dc8:	ff050713          	addi	a4,a0,-16
     dcc:	0ff77713          	andi	a4,a4,255
     dd0:	02e7e163          	bltu	a5,a4,df2 <pinMode+0x498>
     dd4:	050a                	slli	a0,a0,0x2
     dd6:	400117b7          	lui	a5,0x40011
     dda:	81c7a703          	lw	a4,-2020(a5) # 4001081c <__freertos_irq_stack_top+0x2000b81c>
     dde:	01c57593          	andi	a1,a0,28
     de2:	453d                	li	a0,15
     de4:	00b51533          	sll	a0,a0,a1
     de8:	fff54513          	not	a0,a0
     dec:	8d79                	and	a0,a0,a4
     dee:	470d                	li	a4,3
     df0:	b16d                	j	a9a <pinMode+0x140>
     df2:	fe050713          	addi	a4,a0,-32
     df6:	0ff77713          	andi	a4,a4,255
     dfa:	02e7e163          	bltu	a5,a4,e1c <pinMode+0x4c2>
     dfe:	050a                	slli	a0,a0,0x2
     e00:	40011737          	lui	a4,0x40011
     e04:	c0072783          	lw	a5,-1024(a4) # 40010c00 <__freertos_irq_stack_top+0x2000bc00>
     e08:	01c57593          	andi	a1,a0,28
     e0c:	453d                	li	a0,15
     e0e:	00b51533          	sll	a0,a0,a1
     e12:	fff54513          	not	a0,a0
     e16:	8d7d                	and	a0,a0,a5
     e18:	478d                	li	a5,3
     e1a:	b955                	j	ace <pinMode+0x174>
     e1c:	fd850713          	addi	a4,a0,-40
     e20:	0ff77713          	andi	a4,a4,255
     e24:	02e7e163          	bltu	a5,a4,e46 <pinMode+0x4ec>
     e28:	050a                	slli	a0,a0,0x2
     e2a:	400117b7          	lui	a5,0x40011
     e2e:	c047a703          	lw	a4,-1020(a5) # 40010c04 <__freertos_irq_stack_top+0x2000bc04>
     e32:	01c57593          	andi	a1,a0,28
     e36:	453d                	li	a0,15
     e38:	00b51533          	sll	a0,a0,a1
     e3c:	fff54513          	not	a0,a0
     e40:	8d79                	and	a0,a0,a4
     e42:	470d                	li	a4,3
     e44:	b97d                	j	b02 <pinMode+0x1a8>
     e46:	fd050713          	addi	a4,a0,-48
     e4a:	0ff77713          	andi	a4,a4,255
     e4e:	02e7e163          	bltu	a5,a4,e70 <pinMode+0x516>
     e52:	050a                	slli	a0,a0,0x2
     e54:	400117b7          	lui	a5,0x40011
     e58:	c1c7a703          	lw	a4,-996(a5) # 40010c1c <__freertos_irq_stack_top+0x2000bc1c>
     e5c:	01c57593          	andi	a1,a0,28
     e60:	453d                	li	a0,15
     e62:	00b51533          	sll	a0,a0,a1
     e66:	fff54513          	not	a0,a0
     e6a:	8d79                	and	a0,a0,a4
     e6c:	470d                	li	a4,3
     e6e:	b1e1                	j	b36 <pinMode+0x1dc>
     e70:	fc050713          	addi	a4,a0,-64
     e74:	0ff77713          	andi	a4,a4,255
     e78:	02e7e063          	bltu	a5,a4,e98 <pinMode+0x53e>
     e7c:	050a                	slli	a0,a0,0x2
     e7e:	40011737          	lui	a4,0x40011
     e82:	431c                	lw	a5,0(a4)
     e84:	01c57593          	andi	a1,a0,28
     e88:	453d                	li	a0,15
     e8a:	00b51533          	sll	a0,a0,a1
     e8e:	fff54513          	not	a0,a0
     e92:	8d7d                	and	a0,a0,a5
     e94:	478d                	li	a5,3
     e96:	b9c9                	j	b68 <pinMode+0x20e>
     e98:	fb850713          	addi	a4,a0,-72
     e9c:	0ff77713          	andi	a4,a4,255
     ea0:	02e7e063          	bltu	a5,a4,ec0 <pinMode+0x566>
     ea4:	050a                	slli	a0,a0,0x2
     ea6:	40011737          	lui	a4,0x40011
     eaa:	435c                	lw	a5,4(a4)
     eac:	01c57593          	andi	a1,a0,28
     eb0:	453d                	li	a0,15
     eb2:	00b51533          	sll	a0,a0,a1
     eb6:	fff54513          	not	a0,a0
     eba:	8d7d                	and	a0,a0,a5
     ebc:	478d                	li	a5,3
     ebe:	b9e9                	j	b98 <pinMode+0x23e>
     ec0:	fb050713          	addi	a4,a0,-80
     ec4:	0ff77713          	andi	a4,a4,255
     ec8:	02e7e063          	bltu	a5,a4,ee8 <pinMode+0x58e>
     ecc:	050a                	slli	a0,a0,0x2
     ece:	40011737          	lui	a4,0x40011
     ed2:	4f5c                	lw	a5,28(a4)
     ed4:	01c57593          	andi	a1,a0,28
     ed8:	453d                	li	a0,15
     eda:	00b51533          	sll	a0,a0,a1
     ede:	fff54513          	not	a0,a0
     ee2:	8d7d                	and	a0,a0,a5
     ee4:	478d                	li	a5,3
     ee6:	b1cd                	j	bc8 <pinMode+0x26e>
     ee8:	8082                	ret

00000eea <digitalWrite>:
     eea:	4785                	li	a5,1
     eec:	473d                	li	a4,15
     eee:	0af59063          	bne	a1,a5,f8e <digitalWrite+0xa4>
     ef2:	00a76963          	bltu	a4,a0,f04 <digitalWrite+0x1a>
     ef6:	00a59533          	sll	a0,a1,a0
     efa:	400117b7          	lui	a5,0x40011
     efe:	80a7a823          	sw	a0,-2032(a5) # 40010810 <__freertos_irq_stack_top+0x2000b810>
     f02:	8082                	ret
     f04:	ff050693          	addi	a3,a0,-16
     f08:	0ff6f693          	andi	a3,a3,255
     f0c:	479d                	li	a5,7
     f0e:	00d7ea63          	bltu	a5,a3,f22 <digitalWrite+0x38>
     f12:	893d                	andi	a0,a0,15
     f14:	00a595b3          	sll	a1,a1,a0
     f18:	400117b7          	lui	a5,0x40011
     f1c:	82b7a023          	sw	a1,-2016(a5) # 40010820 <__freertos_irq_stack_top+0x2000b820>
     f20:	8082                	ret
     f22:	fe050693          	addi	a3,a0,-32
     f26:	0ff6f693          	andi	a3,a3,255
     f2a:	00d76a63          	bltu	a4,a3,f3e <digitalWrite+0x54>
     f2e:	893d                	andi	a0,a0,15
     f30:	00a595b3          	sll	a1,a1,a0
     f34:	400117b7          	lui	a5,0x40011
     f38:	c0b7a823          	sw	a1,-1008(a5) # 40010c10 <__freertos_irq_stack_top+0x2000bc10>
     f3c:	8082                	ret
     f3e:	fd050693          	addi	a3,a0,-48
     f42:	0ff6f693          	andi	a3,a3,255
     f46:	00d7ea63          	bltu	a5,a3,f5a <digitalWrite+0x70>
     f4a:	893d                	andi	a0,a0,15
     f4c:	00a595b3          	sll	a1,a1,a0
     f50:	400117b7          	lui	a5,0x40011
     f54:	c2b7a023          	sw	a1,-992(a5) # 40010c20 <__freertos_irq_stack_top+0x2000bc20>
     f58:	8082                	ret
     f5a:	fc050693          	addi	a3,a0,-64
     f5e:	0ff6f693          	andi	a3,a3,255
     f62:	00d76963          	bltu	a4,a3,f74 <digitalWrite+0x8a>
     f66:	893d                	andi	a0,a0,15
     f68:	00a595b3          	sll	a1,a1,a0
     f6c:	400117b7          	lui	a5,0x40011
     f70:	cb8c                	sw	a1,16(a5)
     f72:	8082                	ret
     f74:	fb050713          	addi	a4,a0,-80
     f78:	0ff77713          	andi	a4,a4,255
     f7c:	0ae7e963          	bltu	a5,a4,102e <digitalWrite+0x144>
     f80:	893d                	andi	a0,a0,15
     f82:	00a595b3          	sll	a1,a1,a0
     f86:	400117b7          	lui	a5,0x40011
     f8a:	d38c                	sw	a1,32(a5)
     f8c:	8082                	ret
     f8e:	00a76963          	bltu	a4,a0,fa0 <digitalWrite+0xb6>
     f92:	00a79533          	sll	a0,a5,a0
     f96:	400117b7          	lui	a5,0x40011
     f9a:	80a7aa23          	sw	a0,-2028(a5) # 40010814 <__freertos_irq_stack_top+0x2000b814>
     f9e:	8082                	ret
     fa0:	fe050693          	addi	a3,a0,-32
     fa4:	0ff6f693          	andi	a3,a3,255
     fa8:	00d76a63          	bltu	a4,a3,fbc <digitalWrite+0xd2>
     fac:	893d                	andi	a0,a0,15
     fae:	00a797b3          	sll	a5,a5,a0
     fb2:	40011737          	lui	a4,0x40011
     fb6:	c0f72a23          	sw	a5,-1004(a4) # 40010c14 <__freertos_irq_stack_top+0x2000bc14>
     fba:	8082                	ret
     fbc:	fc050693          	addi	a3,a0,-64
     fc0:	0ff6f693          	andi	a3,a3,255
     fc4:	00d76963          	bltu	a4,a3,fd6 <digitalWrite+0xec>
     fc8:	893d                	andi	a0,a0,15
     fca:	00a797b3          	sll	a5,a5,a0
     fce:	40011737          	lui	a4,0x40011
     fd2:	cb5c                	sw	a5,20(a4)
     fd4:	8082                	ret
     fd6:	ff050713          	addi	a4,a0,-16
     fda:	0ff77713          	andi	a4,a4,255
     fde:	479d                	li	a5,7
     fe0:	00e7eb63          	bltu	a5,a4,ff6 <digitalWrite+0x10c>
     fe4:	67c1                	lui	a5,0x10
     fe6:	893d                	andi	a0,a0,15
     fe8:	00a79533          	sll	a0,a5,a0
     fec:	400117b7          	lui	a5,0x40011
     ff0:	82a7a023          	sw	a0,-2016(a5) # 40010820 <__freertos_irq_stack_top+0x2000b820>
     ff4:	8082                	ret
     ff6:	fd050713          	addi	a4,a0,-48
     ffa:	0ff77713          	andi	a4,a4,255
     ffe:	00e7eb63          	bltu	a5,a4,1014 <digitalWrite+0x12a>
    1002:	67c1                	lui	a5,0x10
    1004:	893d                	andi	a0,a0,15
    1006:	00a79533          	sll	a0,a5,a0
    100a:	400117b7          	lui	a5,0x40011
    100e:	c2a7a023          	sw	a0,-992(a5) # 40010c20 <__freertos_irq_stack_top+0x2000bc20>
    1012:	8082                	ret
    1014:	fb050713          	addi	a4,a0,-80
    1018:	0ff77713          	andi	a4,a4,255
    101c:	00e7e963          	bltu	a5,a4,102e <digitalWrite+0x144>
    1020:	67c1                	lui	a5,0x10
    1022:	893d                	andi	a0,a0,15
    1024:	00a79533          	sll	a0,a5,a0
    1028:	400117b7          	lui	a5,0x40011
    102c:	d388                	sw	a0,32(a5)
    102e:	8082                	ret

00001030 <digitalRead>:
    1030:	47dd                	li	a5,23
    1032:	862a                	mv	a2,a0
    1034:	00a7ea63          	bltu	a5,a0,1048 <digitalRead+0x18>
    1038:	400117b7          	lui	a5,0x40011
    103c:	8087a683          	lw	a3,-2040(a5) # 40010808 <__freertos_irq_stack_top+0x2000b808>
    1040:	00a6d533          	srl	a0,a3,a0
    1044:	8905                	andi	a0,a0,1
    1046:	8082                	ret
    1048:	fe050713          	addi	a4,a0,-32
    104c:	0ff77713          	andi	a4,a4,255
    1050:	00e7e963          	bltu	a5,a4,1062 <digitalRead+0x32>
    1054:	400117b7          	lui	a5,0x40011
    1058:	c087a703          	lw	a4,-1016(a5) # 40010c08 <__freertos_irq_stack_top+0x2000bc08>
    105c:	00a75533          	srl	a0,a4,a0
    1060:	b7d5                	j	1044 <digitalRead+0x14>
    1062:	fc050713          	addi	a4,a0,-64
    1066:	0ff77713          	andi	a4,a4,255
    106a:	4501                	li	a0,0
    106c:	fce7ede3          	bltu	a5,a4,1046 <digitalRead+0x16>
    1070:	400117b7          	lui	a5,0x40011
    1074:	479c                	lw	a5,8(a5)
    1076:	00c7d533          	srl	a0,a5,a2
    107a:	b7e9                	j	1044 <digitalRead+0x14>

0000107c <displayNumber>:
    107c:	6789                	lui	a5,0x2
    107e:	70f78793          	addi	a5,a5,1807 # 270f <xTaskCreate+0x14f>
    1082:	872a                	mv	a4,a0
    1084:	00a7f363          	bgeu	a5,a0,108a <displayNumber+0xe>
    1088:	873e                	mv	a4,a5
    108a:	0742                	slli	a4,a4,0x10
    108c:	20000537          	lui	a0,0x20000
    1090:	20000637          	lui	a2,0x20000
    1094:	8341                	srli	a4,a4,0x10
    1096:	478d                	li	a5,3
    1098:	0a850513          	addi	a0,a0,168 # 200000a8 <_edata>
    109c:	4829                	li	a6,10
    109e:	0ac60613          	addi	a2,a2,172 # 200000ac <dotState>
    10a2:	58fd                	li	a7,-1
    10a4:	03077333          	remu	t1,a4,a6
    10a8:	00f506b3          	add	a3,a0,a5
    10ac:	00668023          	sb	t1,0(a3) # 40011000 <__freertos_irq_stack_top+0x2000c000>
    10b0:	40f5d6b3          	sra	a3,a1,a5
    10b4:	00f60333          	add	t1,a2,a5
    10b8:	8a85                	andi	a3,a3,1
    10ba:	00d30023          	sb	a3,0(t1)
    10be:	17fd                	addi	a5,a5,-1
    10c0:	03075733          	divu	a4,a4,a6
    10c4:	ff1790e3          	bne	a5,a7,10a4 <displayNumber+0x28>
    10c8:	8082                	ret

000010ca <showDigit>:
    10ca:	b3aff2ef          	jal	t0,404 <__riscv_save_4>
    10ce:	1141                	addi	sp,sp,-16
    10d0:	842e                	mv	s0,a1
    10d2:	89aa                	mv	s3,a0
    10d4:	4581                	li	a1,0
    10d6:	02d00513          	li	a0,45
    10da:	c632                	sw	a2,12(sp)
    10dc:	3539                	jal	eea <digitalWrite>
    10de:	4581                	li	a1,0
    10e0:	02c00513          	li	a0,44
    10e4:	3519                	jal	eea <digitalWrite>
    10e6:	4581                	li	a1,0
    10e8:	02800513          	li	a0,40
    10ec:	3bfd                	jal	eea <digitalWrite>
    10ee:	4581                	li	a1,0
    10f0:	02900513          	li	a0,41
    10f4:	3bdd                	jal	eea <digitalWrite>
    10f6:	6591                	lui	a1,0x4
    10f8:	4632                	lw	a2,12(sp)
    10fa:	6e458593          	addi	a1,a1,1764 # 46e4 <digitCode>
    10fe:	95a2                	add	a1,a1,s0
    1100:	0005c903          	lbu	s2,0(a1)
    1104:	c219                	beqz	a2,110a <showDigit+0x40>
    1106:	08096913          	ori	s2,s2,128
    110a:	4401                	li	s0,0
    110c:	82418493          	addi	s1,gp,-2012 # 20000094 <segmentPins>
    1110:	4a21                	li	s4,8
    1112:	008487b3          	add	a5,s1,s0
    1116:	408955b3          	sra	a1,s2,s0
    111a:	2388                	lbu	a0,0(a5)
    111c:	fff5c593          	not	a1,a1
    1120:	8985                	andi	a1,a1,1
    1122:	0405                	addi	s0,s0,1
    1124:	33d9                	jal	eea <digitalWrite>
    1126:	ff4416e3          	bne	s0,s4,1112 <showDigit+0x48>
    112a:	82018513          	addi	a0,gp,-2016 # 20000090 <digitPins>
    112e:	954e                	add	a0,a0,s3
    1130:	2108                	lbu	a0,0(a0)
    1132:	4585                	li	a1,1
    1134:	3b5d                	jal	eea <digitalWrite>
    1136:	0141                	addi	sp,sp,16
    1138:	b00ff06f          	j	438 <__riscv_restore_4>

0000113c <scanDisplay>:
    113c:	ac8ff2ef          	jal	t0,404 <__riscv_save_4>
    1140:	20000937          	lui	s2,0x20000
    1144:	200004b7          	lui	s1,0x20000
    1148:	4401                	li	s0,0
    114a:	0ac90913          	addi	s2,s2,172 # 200000ac <dotState>
    114e:	0a848493          	addi	s1,s1,168 # 200000a8 <_edata>
    1152:	4991                	li	s3,4
    1154:	00890733          	add	a4,s2,s0
    1158:	008487b3          	add	a5,s1,s0
    115c:	2310                	lbu	a2,0(a4)
    115e:	238c                	lbu	a1,0(a5)
    1160:	0ff47513          	andi	a0,s0,255
    1164:	0405                	addi	s0,s0,1
    1166:	3795                	jal	10ca <showDigit>
    1168:	4505                	li	a0,1
    116a:	21b010ef          	jal	ra,2b84 <vTaskDelay>
    116e:	ff3413e3          	bne	s0,s3,1154 <scanDisplay+0x18>
    1172:	ac6ff06f          	j	438 <__riscv_restore_4>

00001176 <initLed>:
    1176:	aa8ff2ef          	jal	t0,41e <__riscv_save_0>
    117a:	4401                	li	s0,0
    117c:	82418493          	addi	s1,gp,-2012 # 20000094 <segmentPins>
    1180:	4921                	li	s2,8
    1182:	008487b3          	add	a5,s1,s0
    1186:	2388                	lbu	a0,0(a5)
    1188:	4589                	li	a1,2
    118a:	0405                	addi	s0,s0,1
    118c:	fceff0ef          	jal	ra,95a <pinMode>
    1190:	ff2419e3          	bne	s0,s2,1182 <initLed+0xc>
    1194:	4589                	li	a1,2
    1196:	02d00513          	li	a0,45
    119a:	fc0ff0ef          	jal	ra,95a <pinMode>
    119e:	4589                	li	a1,2
    11a0:	02c00513          	li	a0,44
    11a4:	fb6ff0ef          	jal	ra,95a <pinMode>
    11a8:	4589                	li	a1,2
    11aa:	02800513          	li	a0,40
    11ae:	facff0ef          	jal	ra,95a <pinMode>
    11b2:	4589                	li	a1,2
    11b4:	02900513          	li	a0,41
    11b8:	fa2ff0ef          	jal	ra,95a <pinMode>
    11bc:	a86ff06f          	j	442 <__riscv_restore_0>

000011c0 <clearDisplay>:
    11c0:	a5eff2ef          	jal	t0,41e <__riscv_save_0>
    11c4:	4401                	li	s0,0
    11c6:	82418493          	addi	s1,gp,-2012 # 20000094 <segmentPins>
    11ca:	4921                	li	s2,8
    11cc:	008487b3          	add	a5,s1,s0
    11d0:	2388                	lbu	a0,0(a5)
    11d2:	4581                	li	a1,0
    11d4:	0405                	addi	s0,s0,1
    11d6:	3b11                	jal	eea <digitalWrite>
    11d8:	ff241ae3          	bne	s0,s2,11cc <clearDisplay+0xc>
    11dc:	4581                	li	a1,0
    11de:	02d00513          	li	a0,45
    11e2:	3321                	jal	eea <digitalWrite>
    11e4:	4581                	li	a1,0
    11e6:	02c00513          	li	a0,44
    11ea:	3301                	jal	eea <digitalWrite>
    11ec:	4581                	li	a1,0
    11ee:	02800513          	li	a0,40
    11f2:	39e5                	jal	eea <digitalWrite>
    11f4:	4581                	li	a1,0
    11f6:	02900513          	li	a0,41
    11fa:	39c5                	jal	eea <digitalWrite>
    11fc:	a46ff06f          	j	442 <__riscv_restore_0>

00001200 <task1_task>:
    1200:	a04ff2ef          	jal	t0,404 <__riscv_save_4>
    1204:	1141                	addi	sp,sp,-16
    1206:	b82ff0ef          	jal	ra,588 <button_Init>
    120a:	200004b7          	lui	s1,0x20000
    120e:	00004937          	lui	s2,0x4
    1212:	200009b7          	lui	s3,0x20000
    1216:	20000a37          	lui	s4,0x20000
    121a:	20000ab7          	lui	s5,0x20000
    121e:	00004437          	lui	s0,0x4
    1222:	0c84a503          	lw	a0,200(s1) # 200000c8 <q>
    1226:	567d                	li	a2,-1
    1228:	00610593          	addi	a1,sp,6
    122c:	05c010ef          	jal	ra,2288 <xQueueReceive>
    1230:	c50d                	beqz	a0,125a <task1_task+0x5a>
    1232:	832c                	lhu	a1,6(sp)
    1234:	74c90513          	addi	a0,s2,1868 # 474c <digitCode+0x68>
    1238:	1d4020ef          	jal	ra,340c <iprintf>
    123c:	2ea5                	jal	15b4 <RTC_Read_Time>
    123e:	2ec5                	jal	162e <RTC_Read_Date>
    1240:	0b29c783          	lbu	a5,178(s3) # 200000b2 <RTChour>
    1244:	4522                	lw	a0,8(sp)
    1246:	865c                	sb	a5,12(sp)
    1248:	0b3a4783          	lbu	a5,179(s4) # 200000b3 <RTCmin>
    124c:	86dc                	sb	a5,13(sp)
    124e:	0b5ac783          	lbu	a5,181(s5) # 200000b5 <RTCsec>
    1252:	875c                	sb	a5,14(sp)
    1254:	45b2                	lw	a1,12(sp)
    1256:	e86ff0ef          	jal	ra,8dc <SaveStructToEEPROM>
    125a:	76840513          	addi	a0,s0,1896 # 4768 <digitCode+0x84>
    125e:	2c2020ef          	jal	ra,3520 <puts>
    1262:	b7c1                	j	1222 <task1_task+0x22>

00001264 <task2_task>:
    1264:	9a0ff2ef          	jal	t0,404 <__riscv_save_4>
    1268:	3739                	jal	1176 <initLed>
    126a:	3f99                	jal	11c0 <clearDisplay>
    126c:	200009b7          	lui	s3,0x20000
    1270:	20000937          	lui	s2,0x20000
    1274:	06400493          	li	s1,100
    1278:	20000437          	lui	s0,0x20000
    127c:	0b294783          	lbu	a5,178(s2) # 200000b2 <RTChour>
    1280:	0c49c583          	lbu	a1,196(s3) # 200000c4 <dotBlinkState>
    1284:	0b344503          	lbu	a0,179(s0) # 200000b3 <RTCmin>
    1288:	029787b3          	mul	a5,a5,s1
    128c:	0586                	slli	a1,a1,0x1
    128e:	953e                	add	a0,a0,a5
    1290:	33f5                	jal	107c <displayNumber>
    1292:	356d                	jal	113c <scanDisplay>
    1294:	b7e5                	j	127c <task2_task+0x18>

00001296 <task3_task>:
    1296:	988ff2ef          	jal	t0,41e <__riscv_save_0>
    129a:	200004b7          	lui	s1,0x20000
    129e:	20000937          	lui	s2,0x20000
    12a2:	20000437          	lui	s0,0x20000
    12a6:	1f400513          	li	a0,500
    12aa:	0db010ef          	jal	ra,2b84 <vTaskDelay>
    12ae:	2619                	jal	15b4 <RTC_Read_Time>
    12b0:	0c590713          	addi	a4,s2,197 # 200000c5 <prevSec>
    12b4:	0b54c683          	lbu	a3,181(s1) # 200000b5 <RTCsec>
    12b8:	231c                	lbu	a5,0(a4)
    12ba:	fed786e3          	beq	a5,a3,12a6 <task3_task+0x10>
    12be:	0c440613          	addi	a2,s0,196 # 200000c4 <dotBlinkState>
    12c2:	221c                	lbu	a5,0(a2)
    12c4:	a314                	sb	a3,0(a4)
    12c6:	0017c793          	xori	a5,a5,1
    12ca:	a21c                	sb	a5,0(a2)
    12cc:	bfe9                	j	12a6 <task3_task+0x10>

000012ce <main>:
    12ce:	950ff2ef          	jal	t0,41e <__riscv_save_0>
    12d2:	4509                	li	a0,2
    12d4:	01f000ef          	jal	ra,1af2 <NVIC_PriorityGroupConfig>
    12d8:	78f010ef          	jal	ra,3266 <Delay_Init>
    12dc:	6571                	lui	a0,0x1c
    12de:	20050513          	addi	a0,a0,512 # 1c200 <_data_lma+0x178a8>
    12e2:	7b7010ef          	jal	ra,3298 <USART_Printf_Init>
    12e6:	200007b7          	lui	a5,0x20000
    12ea:	0707a583          	lw	a1,112(a5) # 20000070 <SystemCoreClock>
    12ee:	00004637          	lui	a2,0x4
    12f2:	00004537          	lui	a0,0x4
    12f6:	6f060613          	addi	a2,a2,1776 # 46f0 <digitCode+0xc>
    12fa:	6f850513          	addi	a0,a0,1784 # 46f8 <digitCode+0x14>
    12fe:	10e020ef          	jal	ra,340c <iprintf>
    1302:	4589                	li	a1,2
    1304:	4551                	li	a0,20
    1306:	e54ff0ef          	jal	ra,95a <pinMode>
    130a:	4585                	li	a1,1
    130c:	454d                	li	a0,19
    130e:	e4cff0ef          	jal	ra,95a <pinMode>
    1312:	a76ff0ef          	jal	ra,588 <button_Init>
    1316:	6561                	lui	a0,0x18
    1318:	6a050513          	addi	a0,a0,1696 # 186a0 <_data_lma+0x13d48>
    131c:	ab2ff0ef          	jal	ra,5ce <IIC_Init>
    1320:	df6ff0ef          	jal	ra,916 <e_rom_test>
    1324:	26b5                	jal	1690 <RTC_Test>
    1326:	dccff0ef          	jal	ra,8f2 <LoadStructFromEEPROM>
    132a:	4601                	li	a2,0
    132c:	4589                	li	a1,2
    132e:	450d                	li	a0,3
    1330:	6ed000ef          	jal	ra,221c <xQueueGenericCreate>
    1334:	200007b7          	lui	a5,0x20000
    1338:	0ca7a423          	sw	a0,200(a5) # 200000c8 <q>
    133c:	e519                	bnez	a0,134a <main+0x7c>
    133e:	00004537          	lui	a0,0x4
    1342:	72050513          	addi	a0,a0,1824 # 4720 <digitCode+0x3c>
    1346:	1da020ef          	jal	ra,3520 <puts>
    134a:	00004537          	lui	a0,0x4
    134e:	72c50513          	addi	a0,a0,1836 # 472c <digitCode+0x48>
    1352:	1ce020ef          	jal	ra,3520 <puts>
    1356:	200007b7          	lui	a5,0x20000
    135a:	000045b7          	lui	a1,0x4
    135e:	00001537          	lui	a0,0x1
    1362:	0bc78793          	addi	a5,a5,188 # 200000bc <Task2Task_Handler>
    1366:	4715                	li	a4,5
    1368:	4681                	li	a3,0
    136a:	10000613          	li	a2,256
    136e:	73058593          	addi	a1,a1,1840 # 4730 <digitCode+0x4c>
    1372:	26450513          	addi	a0,a0,612 # 1264 <task2_task>
    1376:	24a010ef          	jal	ra,25c0 <xTaskCreate>
    137a:	00004537          	lui	a0,0x4
    137e:	73850513          	addi	a0,a0,1848 # 4738 <digitCode+0x54>
    1382:	19e020ef          	jal	ra,3520 <puts>
    1386:	200007b7          	lui	a5,0x20000
    138a:	000045b7          	lui	a1,0x4
    138e:	00001537          	lui	a0,0x1
    1392:	0b878793          	addi	a5,a5,184 # 200000b8 <Task1Task_Handler>
    1396:	4715                	li	a4,5
    1398:	4681                	li	a3,0
    139a:	10000613          	li	a2,256
    139e:	73c58593          	addi	a1,a1,1852 # 473c <digitCode+0x58>
    13a2:	20050513          	addi	a0,a0,512 # 1200 <task1_task>
    13a6:	21a010ef          	jal	ra,25c0 <xTaskCreate>
    13aa:	200007b7          	lui	a5,0x20000
    13ae:	000045b7          	lui	a1,0x4
    13b2:	00001537          	lui	a0,0x1
    13b6:	0c078793          	addi	a5,a5,192 # 200000c0 <Task3Task_Handler>
    13ba:	4715                	li	a4,5
    13bc:	4681                	li	a3,0
    13be:	10000613          	li	a2,256
    13c2:	74458593          	addi	a1,a1,1860 # 4744 <digitCode+0x60>
    13c6:	29650513          	addi	a0,a0,662 # 1296 <task3_task>
    13ca:	1f6010ef          	jal	ra,25c0 <xTaskCreate>
    13ce:	9baff0ef          	jal	ra,588 <button_Init>
    13d2:	3f2010ef          	jal	ra,27c4 <vTaskStartScheduler>
    13d6:	4501                	li	a0,0
    13d8:	86aff06f          	j	442 <__riscv_restore_0>

000013dc <Convert_BCD_DECIMAL>:
    13dc:	00455793          	srli	a5,a0,0x4
    13e0:	4729                	li	a4,10
    13e2:	02e787b3          	mul	a5,a5,a4
    13e6:	893d                	andi	a0,a0,15
    13e8:	953e                	add	a0,a0,a5
    13ea:	0ff57513          	andi	a0,a0,255
    13ee:	8082                	ret

000013f0 <RTC_Write>:
    13f0:	814ff2ef          	jal	t0,404 <__riscv_save_4>
    13f4:	40005437          	lui	s0,0x40005
    13f8:	89aa                	mv	s3,a0
    13fa:	892e                	mv	s2,a1
    13fc:	40040493          	addi	s1,s0,1024 # 40005400 <__freertos_irq_stack_top+0x20000400>
    1400:	000205b7          	lui	a1,0x20
    1404:	8526                	mv	a0,s1
    1406:	6ba000ef          	jal	ra,1ac0 <I2C_GetFlagStatus>
    140a:	f97d                	bnez	a0,1400 <RTC_Write+0x10>
    140c:	40040513          	addi	a0,s0,1024
    1410:	4585                	li	a1,1
    1412:	00030437          	lui	s0,0x30
    1416:	400054b7          	lui	s1,0x40005
    141a:	2515                	jal	1a3e <I2C_GenerateSTART>
    141c:	0405                	addi	s0,s0,1
    141e:	40048a13          	addi	s4,s1,1024 # 40005400 <__freertos_irq_stack_top+0x20000400>
    1422:	85a2                	mv	a1,s0
    1424:	8552                	mv	a0,s4
    1426:	684000ef          	jal	ra,1aaa <I2C_CheckEvent>
    142a:	dd65                	beqz	a0,1422 <RTC_Write+0x32>
    142c:	40048513          	addi	a0,s1,1024
    1430:	4601                	li	a2,0
    1432:	0d000593          	li	a1,208
    1436:	00070437          	lui	s0,0x70
    143a:	400054b7          	lui	s1,0x40005
    143e:	2da9                	jal	1a98 <I2C_Send7bitAddress>
    1440:	08240413          	addi	s0,s0,130 # 70082 <_data_lma+0x6b72a>
    1444:	40048a13          	addi	s4,s1,1024 # 40005400 <__freertos_irq_stack_top+0x20000400>
    1448:	85a2                	mv	a1,s0
    144a:	8552                	mv	a0,s4
    144c:	2db9                	jal	1aaa <I2C_CheckEvent>
    144e:	dd6d                	beqz	a0,1448 <RTC_Write+0x58>
    1450:	0ff9f593          	andi	a1,s3,255
    1454:	40048513          	addi	a0,s1,1024
    1458:	40005437          	lui	s0,0x40005
    145c:	000704b7          	lui	s1,0x70
    1460:	2535                	jal	1a8c <I2C_SendData>
    1462:	08448493          	addi	s1,s1,132 # 70084 <_data_lma+0x6b72c>
    1466:	40040993          	addi	s3,s0,1024 # 40005400 <__freertos_irq_stack_top+0x20000400>
    146a:	85a6                	mv	a1,s1
    146c:	854e                	mv	a0,s3
    146e:	2d35                	jal	1aaa <I2C_CheckEvent>
    1470:	dd6d                	beqz	a0,146a <RTC_Write+0x7a>
    1472:	100005b7          	lui	a1,0x10000
    1476:	08058593          	addi	a1,a1,128 # 10000080 <_data_lma+0xfffb728>
    147a:	40040513          	addi	a0,s0,1024
    147e:	2589                	jal	1ac0 <I2C_GetFlagStatus>
    1480:	c509                	beqz	a0,148a <RTC_Write+0x9a>
    1482:	85ca                	mv	a1,s2
    1484:	40040513          	addi	a0,s0,1024
    1488:	2511                	jal	1a8c <I2C_SendData>
    148a:	00070437          	lui	s0,0x70
    148e:	400054b7          	lui	s1,0x40005
    1492:	08440413          	addi	s0,s0,132 # 70084 <_data_lma+0x6b72c>
    1496:	40048913          	addi	s2,s1,1024 # 40005400 <__freertos_irq_stack_top+0x20000400>
    149a:	85a2                	mv	a1,s0
    149c:	854a                	mv	a0,s2
    149e:	2531                	jal	1aaa <I2C_CheckEvent>
    14a0:	dd6d                	beqz	a0,149a <RTC_Write+0xaa>
    14a2:	4585                	li	a1,1
    14a4:	40048513          	addi	a0,s1,1024
    14a8:	2b45                	jal	1a58 <I2C_GenerateSTOP>
    14aa:	f8ffe06f          	j	438 <__riscv_restore_4>

000014ae <RTC_Read>:
    14ae:	f57fe2ef          	jal	t0,404 <__riscv_save_4>
    14b2:	40005437          	lui	s0,0x40005
    14b6:	892a                	mv	s2,a0
    14b8:	40040493          	addi	s1,s0,1024 # 40005400 <__freertos_irq_stack_top+0x20000400>
    14bc:	000205b7          	lui	a1,0x20
    14c0:	8526                	mv	a0,s1
    14c2:	2bfd                	jal	1ac0 <I2C_GetFlagStatus>
    14c4:	fd65                	bnez	a0,14bc <RTC_Read+0xe>
    14c6:	40040513          	addi	a0,s0,1024
    14ca:	4585                	li	a1,1
    14cc:	00030437          	lui	s0,0x30
    14d0:	400054b7          	lui	s1,0x40005
    14d4:	23ad                	jal	1a3e <I2C_GenerateSTART>
    14d6:	0405                	addi	s0,s0,1
    14d8:	40048993          	addi	s3,s1,1024 # 40005400 <__freertos_irq_stack_top+0x20000400>
    14dc:	85a2                	mv	a1,s0
    14de:	854e                	mv	a0,s3
    14e0:	23e9                	jal	1aaa <I2C_CheckEvent>
    14e2:	dd6d                	beqz	a0,14dc <RTC_Read+0x2e>
    14e4:	40048513          	addi	a0,s1,1024
    14e8:	4601                	li	a2,0
    14ea:	0d000593          	li	a1,208
    14ee:	00070437          	lui	s0,0x70
    14f2:	400054b7          	lui	s1,0x40005
    14f6:	234d                	jal	1a98 <I2C_Send7bitAddress>
    14f8:	08240413          	addi	s0,s0,130 # 70082 <_data_lma+0x6b72a>
    14fc:	40048993          	addi	s3,s1,1024 # 40005400 <__freertos_irq_stack_top+0x20000400>
    1500:	85a2                	mv	a1,s0
    1502:	854e                	mv	a0,s3
    1504:	235d                	jal	1aaa <I2C_CheckEvent>
    1506:	dd6d                	beqz	a0,1500 <RTC_Read+0x52>
    1508:	0ff97593          	andi	a1,s2,255
    150c:	40048513          	addi	a0,s1,1024
    1510:	00070437          	lui	s0,0x70
    1514:	400054b7          	lui	s1,0x40005
    1518:	2b95                	jal	1a8c <I2C_SendData>
    151a:	08440413          	addi	s0,s0,132 # 70084 <_data_lma+0x6b72c>
    151e:	40048913          	addi	s2,s1,1024 # 40005400 <__freertos_irq_stack_top+0x20000400>
    1522:	85a2                	mv	a1,s0
    1524:	854a                	mv	a0,s2
    1526:	2351                	jal	1aaa <I2C_CheckEvent>
    1528:	dd6d                	beqz	a0,1522 <RTC_Read+0x74>
    152a:	40048513          	addi	a0,s1,1024
    152e:	4585                	li	a1,1
    1530:	00030437          	lui	s0,0x30
    1534:	400054b7          	lui	s1,0x40005
    1538:	2319                	jal	1a3e <I2C_GenerateSTART>
    153a:	0405                	addi	s0,s0,1
    153c:	40048913          	addi	s2,s1,1024 # 40005400 <__freertos_irq_stack_top+0x20000400>
    1540:	85a2                	mv	a1,s0
    1542:	854a                	mv	a0,s2
    1544:	239d                	jal	1aaa <I2C_CheckEvent>
    1546:	dd6d                	beqz	a0,1540 <RTC_Read+0x92>
    1548:	40048513          	addi	a0,s1,1024
    154c:	4605                	li	a2,1
    154e:	0d100593          	li	a1,209
    1552:	000304b7          	lui	s1,0x30
    1556:	40005437          	lui	s0,0x40005
    155a:	2b3d                	jal	1a98 <I2C_Send7bitAddress>
    155c:	0489                	addi	s1,s1,2
    155e:	40040413          	addi	s0,s0,1024 # 40005400 <__freertos_irq_stack_top+0x20000400>
    1562:	85a6                	mv	a1,s1
    1564:	8522                	mv	a0,s0
    1566:	2391                	jal	1aaa <I2C_CheckEvent>
    1568:	dd6d                	beqz	a0,1562 <RTC_Read+0xb4>
    156a:	100004b7          	lui	s1,0x10000
    156e:	40005437          	lui	s0,0x40005
    1572:	04048493          	addi	s1,s1,64 # 10000040 <_data_lma+0xfffb6e8>
    1576:	40040913          	addi	s2,s0,1024 # 40005400 <__freertos_irq_stack_top+0x20000400>
    157a:	85a6                	mv	a1,s1
    157c:	854a                	mv	a0,s2
    157e:	2389                	jal	1ac0 <I2C_GetFlagStatus>
    1580:	cd01                	beqz	a0,1598 <RTC_Read+0xea>
    1582:	40040513          	addi	a0,s0,1024
    1586:	2329                	jal	1a90 <I2C_ReceiveData>
    1588:	84aa                	mv	s1,a0
    158a:	4585                	li	a1,1
    158c:	40040513          	addi	a0,s0,1024
    1590:	21e1                	jal	1a58 <I2C_GenerateSTOP>
    1592:	8526                	mv	a0,s1
    1594:	ea5fe06f          	j	438 <__riscv_restore_4>
    1598:	4581                	li	a1,0
    159a:	854a                	mv	a0,s2
    159c:	29d9                	jal	1a72 <I2C_AcknowledgeConfig>
    159e:	bff1                	j	157a <RTC_Read+0xcc>

000015a0 <RTC_Init>:
    15a0:	e7ffe2ef          	jal	t0,41e <__riscv_save_0>
    15a4:	4581                	li	a1,0
    15a6:	4539                	li	a0,14
    15a8:	35a1                	jal	13f0 <RTC_Write>
    15aa:	45a1                	li	a1,8
    15ac:	453d                	li	a0,15
    15ae:	3589                	jal	13f0 <RTC_Write>
    15b0:	e93fe06f          	j	442 <__riscv_restore_0>

000015b4 <RTC_Read_Time>:
    15b4:	e51fe2ef          	jal	t0,404 <__riscv_save_4>
    15b8:	4501                	li	a0,0
    15ba:	3dd5                	jal	14ae <RTC_Read>
    15bc:	3505                	jal	13dc <Convert_BCD_DECIMAL>
    15be:	200009b7          	lui	s3,0x20000
    15c2:	0aa98aa3          	sb	a0,181(s3) # 200000b5 <RTCsec>
    15c6:	4505                	li	a0,1
    15c8:	35dd                	jal	14ae <RTC_Read>
    15ca:	3d09                	jal	13dc <Convert_BCD_DECIMAL>
    15cc:	200004b7          	lui	s1,0x20000
    15d0:	0aa489a3          	sb	a0,179(s1) # 200000b3 <RTCmin>
    15d4:	4509                	li	a0,2
    15d6:	3de1                	jal	14ae <RTC_Read>
    15d8:	04057793          	andi	a5,a0,64
    15dc:	8926                	mv	s2,s1
    15de:	842a                	mv	s0,a0
    15e0:	200004b7          	lui	s1,0x20000
    15e4:	c3a9                	beqz	a5,1626 <RTC_Read_Time+0x72>
    15e6:	8415                	srai	s0,s0,0x5
    15e8:	897d                	andi	a0,a0,31
    15ea:	8805                	andi	s0,s0,1
    15ec:	3bc5                	jal	13dc <Convert_BCD_DECIMAL>
    15ee:	c809                	beqz	s0,1600 <RTC_Read_Time+0x4c>
    15f0:	47ad                	li	a5,11
    15f2:	00a7f563          	bgeu	a5,a0,15fc <RTC_Read_Time+0x48>
    15f6:	0aa48923          	sb	a0,178(s1) # 200000b2 <RTChour>
    15fa:	a801                	j	160a <RTC_Read_Time+0x56>
    15fc:	0531                	addi	a0,a0,12
    15fe:	bfe5                	j	15f6 <RTC_Read_Time+0x42>
    1600:	47b1                	li	a5,12
    1602:	fef51ae3          	bne	a0,a5,15f6 <RTC_Read_Time+0x42>
    1606:	0a048923          	sb	zero,178(s1)
    160a:	0b59c683          	lbu	a3,181(s3)
    160e:	0b394603          	lbu	a2,179(s2)
    1612:	0b24c583          	lbu	a1,178(s1)
    1616:	00004537          	lui	a0,0x4
    161a:	79c50513          	addi	a0,a0,1948 # 479c <digitCode+0xb8>
    161e:	5ef010ef          	jal	ra,340c <iprintf>
    1622:	e17fe06f          	j	438 <__riscv_restore_4>
    1626:	03f57513          	andi	a0,a0,63
    162a:	3b4d                	jal	13dc <Convert_BCD_DECIMAL>
    162c:	b7e9                	j	15f6 <RTC_Read_Time+0x42>

0000162e <RTC_Read_Date>:
    162e:	df1fe2ef          	jal	t0,41e <__riscv_save_0>
    1632:	4519                	li	a0,6
    1634:	3dad                	jal	14ae <RTC_Read>
    1636:	335d                	jal	13dc <Convert_BCD_DECIMAL>
    1638:	20000937          	lui	s2,0x20000
    163c:	0aa90b23          	sb	a0,182(s2) # 200000b6 <RTCyear>
    1640:	4515                	li	a0,5
    1642:	35b5                	jal	14ae <RTC_Read>
    1644:	897d                	andi	a0,a0,31
    1646:	3b59                	jal	13dc <Convert_BCD_DECIMAL>
    1648:	200004b7          	lui	s1,0x20000
    164c:	0aa48a23          	sb	a0,180(s1) # 200000b4 <RTCmonth>
    1650:	4511                	li	a0,4
    1652:	3db1                	jal	14ae <RTC_Read>
    1654:	03f57513          	andi	a0,a0,63
    1658:	3351                	jal	13dc <Convert_BCD_DECIMAL>
    165a:	20000437          	lui	s0,0x20000
    165e:	0aa40823          	sb	a0,176(s0) # 200000b0 <RTCdate>
    1662:	450d                	li	a0,3
    1664:	35a9                	jal	14ae <RTC_Read>
    1666:	891d                	andi	a0,a0,7
    1668:	3b95                	jal	13dc <Convert_BCD_DECIMAL>
    166a:	200007b7          	lui	a5,0x20000
    166e:	0b694703          	lbu	a4,182(s2)
    1672:	0b44c683          	lbu	a3,180(s1)
    1676:	0b044603          	lbu	a2,176(s0)
    167a:	85aa                	mv	a1,a0
    167c:	0aa788a3          	sb	a0,177(a5) # 200000b1 <RTCday>
    1680:	00004537          	lui	a0,0x4
    1684:	77850513          	addi	a0,a0,1912 # 4778 <digitCode+0x94>
    1688:	585010ef          	jal	ra,340c <iprintf>
    168c:	db7fe06f          	j	442 <__riscv_restore_0>

00001690 <RTC_Test>:
    1690:	d8ffe2ef          	jal	t0,41e <__riscv_save_0>
    1694:	1141                	addi	sp,sp,-16
    1696:	3729                	jal	15a0 <RTC_Init>
    1698:	3f31                	jal	15b4 <RTC_Read_Time>
    169a:	3f51                	jal	162e <RTC_Read_Date>
    169c:	4545                	li	a0,17
    169e:	3d01                	jal	14ae <RTC_Read>
    16a0:	c62a                	sw	a0,12(sp)
    16a2:	4549                	li	a0,18
    16a4:	3529                	jal	14ae <RTC_Read>
    16a6:	45b2                	lw	a1,12(sp)
    16a8:	862a                	mv	a2,a0
    16aa:	00004537          	lui	a0,0x4
    16ae:	7b850513          	addi	a0,a0,1976 # 47b8 <digitCode+0xd4>
    16b2:	55b010ef          	jal	ra,340c <iprintf>
    16b6:	0141                	addi	sp,sp,16
    16b8:	d8bfe06f          	j	442 <__riscv_restore_0>

000016bc <SystemInit>:
    16bc:	400217b7          	lui	a5,0x40021
    16c0:	4398                	lw	a4,0(a5)
    16c2:	f90006b7          	lui	a3,0xf9000
    16c6:	f5f68693          	addi	a3,a3,-161 # f8ffff5f <__freertos_irq_stack_top+0xd8ffaf5f>
    16ca:	00176713          	ori	a4,a4,1
    16ce:	c398                	sw	a4,0(a5)
    16d0:	43d8                	lw	a4,4(a5)
    16d2:	05076713          	ori	a4,a4,80
    16d6:	c3d8                	sw	a4,4(a5)
    16d8:	43d8                	lw	a4,4(a5)
    16da:	8f75                	and	a4,a4,a3
    16dc:	c3d8                	sw	a4,4(a5)
    16de:	40022737          	lui	a4,0x40022
    16e2:	4314                	lw	a3,0(a4)
    16e4:	9af1                	andi	a3,a3,-4
    16e6:	c314                	sw	a3,0(a4)
    16e8:	4314                	lw	a3,0(a4)
    16ea:	0026e693          	ori	a3,a3,2
    16ee:	c314                	sw	a3,0(a4)
    16f0:	43d8                	lw	a4,4(a5)
    16f2:	f0f77713          	andi	a4,a4,-241
    16f6:	c3d8                	sw	a4,4(a5)
    16f8:	43d8                	lw	a4,4(a5)
    16fa:	c3d8                	sw	a4,4(a5)
    16fc:	8082                	ret
    16fe:	a001                	j	16fe <SystemInit+0x42>
    1700:	a001                	j	1700 <SystemInit+0x44>

00001702 <Ecall_M_Mode_Handler>:
    1702:	a001                	j	1702 <Ecall_M_Mode_Handler>

00001704 <Ecall_U_Mode_Handler>:
    1704:	a001                	j	1704 <Ecall_U_Mode_Handler>

00001706 <Break_Point_Handler>:
    1706:	a001                	j	1706 <Break_Point_Handler>
    1708:	a001                	j	1708 <Break_Point_Handler+0x2>
    170a:	a001                	j	170a <Break_Point_Handler+0x4>

0000170c <WWDG_IRQHandler>:
    170c:	a001                	j	170c <WWDG_IRQHandler>

0000170e <PVD_IRQHandler>:
    170e:	a001                	j	170e <PVD_IRQHandler>

00001710 <FLASH_IRQHandler>:
    1710:	a001                	j	1710 <FLASH_IRQHandler>

00001712 <EXTI7_0_IRQHandler>:
    1712:	a001                	j	1712 <EXTI7_0_IRQHandler>

00001714 <AWU_IRQHandler>:
    1714:	a001                	j	1714 <AWU_IRQHandler>

00001716 <DMA1_Channel1_IRQHandler>:
    1716:	a001                	j	1716 <DMA1_Channel1_IRQHandler>

00001718 <DMA1_Channel2_IRQHandler>:
    1718:	a001                	j	1718 <DMA1_Channel2_IRQHandler>

0000171a <DMA1_Channel3_IRQHandler>:
    171a:	a001                	j	171a <DMA1_Channel3_IRQHandler>

0000171c <DMA1_Channel4_IRQHandler>:
    171c:	a001                	j	171c <DMA1_Channel4_IRQHandler>

0000171e <DMA1_Channel5_IRQHandler>:
    171e:	a001                	j	171e <DMA1_Channel5_IRQHandler>

00001720 <DMA1_Channel6_IRQHandler>:
    1720:	a001                	j	1720 <DMA1_Channel6_IRQHandler>

00001722 <DMA1_Channel7_IRQHandler>:
    1722:	a001                	j	1722 <DMA1_Channel7_IRQHandler>

00001724 <ADC1_IRQHandler>:
    1724:	a001                	j	1724 <ADC1_IRQHandler>

00001726 <I2C1_EV_IRQHandler>:
    1726:	a001                	j	1726 <I2C1_EV_IRQHandler>

00001728 <I2C1_ER_IRQHandler>:
    1728:	a001                	j	1728 <I2C1_ER_IRQHandler>

0000172a <USART1_IRQHandler>:
    172a:	a001                	j	172a <USART1_IRQHandler>

0000172c <SPI1_IRQHandler>:
    172c:	a001                	j	172c <SPI1_IRQHandler>

0000172e <TIM1_BRK_IRQHandler>:
    172e:	a001                	j	172e <TIM1_BRK_IRQHandler>

00001730 <TIM1_UP_IRQHandler>:
    1730:	a001                	j	1730 <TIM1_UP_IRQHandler>

00001732 <TIM1_TRG_COM_IRQHandler>:
    1732:	a001                	j	1732 <TIM1_TRG_COM_IRQHandler>

00001734 <TIM1_CC_IRQHandler>:
    1734:	a001                	j	1734 <TIM1_CC_IRQHandler>

00001736 <TIM2_UP_IRQHandler>:
    1736:	a001                	j	1736 <TIM2_UP_IRQHandler>

00001738 <USART2_IRQHandler>:
    1738:	a001                	j	1738 <USART2_IRQHandler>

0000173a <EXTI15_8_IRQHandler>:
    173a:	a001                	j	173a <EXTI15_8_IRQHandler>

0000173c <EXTI25_16_IRQHandler>:
    173c:	a001                	j	173c <EXTI25_16_IRQHandler>

0000173e <USART3_IRQHandler>:
    173e:	a001                	j	173e <USART3_IRQHandler>

00001740 <USART4_IRQHandler>:
    1740:	a001                	j	1740 <USART4_IRQHandler>

00001742 <DMA1_Channel8_IRQHandler>:
    1742:	a001                	j	1742 <DMA1_Channel8_IRQHandler>

00001744 <USBFS_IRQHandler>:
    1744:	a001                	j	1744 <USBFS_IRQHandler>

00001746 <USBFSWakeUp_IRQHandler>:
    1746:	a001                	j	1746 <USBFSWakeUp_IRQHandler>

00001748 <PIOC_IRQHandler>:
    1748:	a001                	j	1748 <PIOC_IRQHandler>

0000174a <OPA_IRQHandler>:
    174a:	a001                	j	174a <OPA_IRQHandler>

0000174c <USBPD_IRQHandler>:
    174c:	a001                	j	174c <USBPD_IRQHandler>

0000174e <USBPDWakeUp_IRQHandler>:
    174e:	a001                	j	174e <USBPDWakeUp_IRQHandler>

00001750 <TIM2_CC_IRQHandler>:
    1750:	a001                	j	1750 <TIM2_CC_IRQHandler>

00001752 <TIM2_TRG_COM_IRQHandler>:
    1752:	a001                	j	1752 <TIM2_TRG_COM_IRQHandler>

00001754 <TIM2_BRK_IRQHandler>:
    1754:	a001                	j	1754 <TIM2_BRK_IRQHandler>

00001756 <TIM3_IRQHandler>:
    1756:	a001                	j	1756 <TIM3_IRQHandler>

00001758 <handle_reset>:
    1758:	1ffff197          	auipc	gp,0x1ffff
    175c:	11818193          	addi	gp,gp,280 # 20000870 <__global_pointer$>
    1760:	20004117          	auipc	sp,0x20004
    1764:	8a010113          	addi	sp,sp,-1888 # 20005000 <__freertos_irq_stack_top>
    1768:	00003517          	auipc	a0,0x3
    176c:	1f050513          	addi	a0,a0,496 # 4958 <_data_lma>
    1770:	1ffff597          	auipc	a1,0x1ffff
    1774:	89058593          	addi	a1,a1,-1904 # 20000000 <_data_vma>
    1778:	83818613          	addi	a2,gp,-1992 # 200000a8 <_edata>
    177c:	00c5fa63          	bgeu	a1,a2,1790 <handle_reset+0x38>
    1780:	00052283          	lw	t0,0(a0)
    1784:	0055a023          	sw	t0,0(a1)
    1788:	0511                	addi	a0,a0,4
    178a:	0591                	addi	a1,a1,4
    178c:	fec5eae3          	bltu	a1,a2,1780 <handle_reset+0x28>
    1790:	1ffff517          	auipc	a0,0x1ffff
    1794:	91850513          	addi	a0,a0,-1768 # 200000a8 <_edata>
    1798:	20002597          	auipc	a1,0x20002
    179c:	bb058593          	addi	a1,a1,-1104 # 20003348 <_ebss>
    17a0:	00b57763          	bgeu	a0,a1,17ae <handle_reset+0x56>
    17a4:	00052023          	sw	zero,0(a0)
    17a8:	0511                	addi	a0,a0,4
    17aa:	feb56de3          	bltu	a0,a1,17a4 <handle_reset+0x4c>
    17ae:	42fd                	li	t0,31
    17b0:	bc029073          	csrw	0xbc0,t0
    17b4:	4289                	li	t0,2
    17b6:	80429073          	csrw	0x804,t0
    17ba:	000022b7          	lui	t0,0x2
    17be:	80028293          	addi	t0,t0,-2048 # 1800 <GPIO_Init+0x16>
    17c2:	3002a073          	csrs	mstatus,t0
    17c6:	fffff297          	auipc	t0,0xfffff
    17ca:	83e28293          	addi	t0,t0,-1986 # 4 <_einit>
    17ce:	0032e293          	ori	t0,t0,3
    17d2:	30529073          	csrw	mtvec,t0
    17d6:	ee7ff0ef          	jal	ra,16bc <SystemInit>
    17da:	00000297          	auipc	t0,0x0
    17de:	af428293          	addi	t0,t0,-1292 # 12ce <main>
    17e2:	34129073          	csrw	mepc,t0
    17e6:	30200073          	mret

000017ea <GPIO_Init>:
    17ea:	4598                	lw	a4,8(a1)
    17ec:	01077793          	andi	a5,a4,16
    17f0:	00f77813          	andi	a6,a4,15
    17f4:	c781                	beqz	a5,17fc <GPIO_Init+0x12>
    17f6:	41dc                	lw	a5,4(a1)
    17f8:	00f86833          	or	a6,a6,a5
    17fc:	4194                	lw	a3,0(a1)
    17fe:	4781                	li	a5,0
    1800:	0ff6f613          	andi	a2,a3,255
    1804:	c239                	beqz	a2,184a <GPIO_Init+0x60>
    1806:	411c                	lw	a5,0(a0)
    1808:	4601                	li	a2,0
    180a:	4e85                	li	t4,1
    180c:	4f3d                	li	t5,15
    180e:	02800f93          	li	t6,40
    1812:	04800293          	li	t0,72
    1816:	4e21                	li	t3,8
    1818:	00ce98b3          	sll	a7,t4,a2
    181c:	0116f5b3          	and	a1,a3,a7
    1820:	02b89163          	bne	a7,a1,1842 <GPIO_Init+0x58>
    1824:	00261313          	slli	t1,a2,0x2
    1828:	006f15b3          	sll	a1,t5,t1
    182c:	fff5c593          	not	a1,a1
    1830:	8fed                	and	a5,a5,a1
    1832:	00681333          	sll	t1,a6,t1
    1836:	00f367b3          	or	a5,t1,a5
    183a:	0df71763          	bne	a4,t6,1908 <GPIO_Init+0x11e>
    183e:	01152a23          	sw	a7,20(a0)
    1842:	0605                	addi	a2,a2,1
    1844:	fdc61ae3          	bne	a2,t3,1818 <GPIO_Init+0x2e>
    1848:	c11c                	sw	a5,0(a0)
    184a:	6641                	lui	a2,0x10
    184c:	f0060613          	addi	a2,a2,-256 # ff00 <_data_lma+0xb5a8>
    1850:	8e75                	and	a2,a2,a3
    1852:	c23d                	beqz	a2,18b8 <GPIO_Init+0xce>
    1854:	40011637          	lui	a2,0x40011
    1858:	80060593          	addi	a1,a2,-2048 # 40010800 <__freertos_irq_stack_top+0x2000b800>
    185c:	0ab51b63          	bne	a0,a1,1912 <GPIO_Init+0x128>
    1860:	8041a783          	lw	a5,-2044(gp) # 20000074 <CFGHR_tmpA>
    1864:	45a1                	li	a1,8
    1866:	4e85                	li	t4,1
    1868:	4f3d                	li	t5,15
    186a:	02800f93          	li	t6,40
    186e:	04800293          	li	t0,72
    1872:	4e41                	li	t3,16
    1874:	00be9333          	sll	t1,t4,a1
    1878:	0066f633          	and	a2,a3,t1
    187c:	02c31263          	bne	t1,a2,18a0 <GPIO_Init+0xb6>
    1880:	00259613          	slli	a2,a1,0x2
    1884:	1601                	addi	a2,a2,-32
    1886:	00cf18b3          	sll	a7,t5,a2
    188a:	fff8c893          	not	a7,a7
    188e:	00f8f7b3          	and	a5,a7,a5
    1892:	00c81633          	sll	a2,a6,a2
    1896:	8fd1                	or	a5,a5,a2
    1898:	09f71963          	bne	a4,t6,192a <GPIO_Init+0x140>
    189c:	00652a23          	sw	t1,20(a0)
    18a0:	0585                	addi	a1,a1,1
    18a2:	fdc599e3          	bne	a1,t3,1874 <GPIO_Init+0x8a>
    18a6:	40011637          	lui	a2,0x40011
    18aa:	c15c                	sw	a5,4(a0)
    18ac:	80060593          	addi	a1,a2,-2048 # 40010800 <__freertos_irq_stack_top+0x2000b800>
    18b0:	08b51263          	bne	a0,a1,1934 <GPIO_Init+0x14a>
    18b4:	80f1a223          	sw	a5,-2044(gp) # 20000074 <CFGHR_tmpA>
    18b8:	67c1                	lui	a5,0x10
    18ba:	04f6e663          	bltu	a3,a5,1906 <GPIO_Init+0x11c>
    18be:	4d50                	lw	a2,28(a0)
    18c0:	4781                	li	a5,0
    18c2:	4e05                	li	t3,1
    18c4:	4f3d                	li	t5,15
    18c6:	02800f93          	li	t6,40
    18ca:	04800293          	li	t0,72
    18ce:	4ea1                	li	t4,8
    18d0:	01078593          	addi	a1,a5,16 # 10010 <_data_lma+0xb6b8>
    18d4:	00be15b3          	sll	a1,t3,a1
    18d8:	00b6f8b3          	and	a7,a3,a1
    18dc:	03159163          	bne	a1,a7,18fe <GPIO_Init+0x114>
    18e0:	00279893          	slli	a7,a5,0x2
    18e4:	011f1333          	sll	t1,t5,a7
    18e8:	fff34313          	not	t1,t1
    18ec:	00c37633          	and	a2,t1,a2
    18f0:	011818b3          	sll	a7,a6,a7
    18f4:	00c8e633          	or	a2,a7,a2
    18f8:	05f71a63          	bne	a4,t6,194c <GPIO_Init+0x162>
    18fc:	c94c                	sw	a1,20(a0)
    18fe:	0785                	addi	a5,a5,1
    1900:	fdd798e3          	bne	a5,t4,18d0 <GPIO_Init+0xe6>
    1904:	cd50                	sw	a2,28(a0)
    1906:	8082                	ret
    1908:	f2571de3          	bne	a4,t0,1842 <GPIO_Init+0x58>
    190c:	01152823          	sw	a7,16(a0)
    1910:	bf0d                	j	1842 <GPIO_Init+0x58>
    1912:	c0060593          	addi	a1,a2,-1024
    1916:	00b51563          	bne	a0,a1,1920 <GPIO_Init+0x136>
    191a:	8081a783          	lw	a5,-2040(gp) # 20000078 <CFGHR_tmpB>
    191e:	b799                	j	1864 <GPIO_Init+0x7a>
    1920:	f4c512e3          	bne	a0,a2,1864 <GPIO_Init+0x7a>
    1924:	80c1a783          	lw	a5,-2036(gp) # 2000007c <CFGHR_tmpC>
    1928:	bf35                	j	1864 <GPIO_Init+0x7a>
    192a:	f6571be3          	bne	a4,t0,18a0 <GPIO_Init+0xb6>
    192e:	00652823          	sw	t1,16(a0)
    1932:	b7bd                	j	18a0 <GPIO_Init+0xb6>
    1934:	c0060593          	addi	a1,a2,-1024
    1938:	00b51563          	bne	a0,a1,1942 <GPIO_Init+0x158>
    193c:	80f1a423          	sw	a5,-2040(gp) # 20000078 <CFGHR_tmpB>
    1940:	bfa5                	j	18b8 <GPIO_Init+0xce>
    1942:	f6c51be3          	bne	a0,a2,18b8 <GPIO_Init+0xce>
    1946:	80f1a623          	sw	a5,-2036(gp) # 2000007c <CFGHR_tmpC>
    194a:	b7bd                	j	18b8 <GPIO_Init+0xce>
    194c:	fa5719e3          	bne	a4,t0,18fe <GPIO_Init+0x114>
    1950:	00fe15b3          	sll	a1,t3,a5
    1954:	d10c                	sw	a1,32(a0)
    1956:	b765                	j	18fe <GPIO_Init+0x114>

00001958 <I2C_Init>:
    1958:	ac7fe2ef          	jal	t0,41e <__riscv_save_0>
    195c:	1101                	addi	sp,sp,-32
    195e:	84aa                	mv	s1,a0
    1960:	2142                	lhu	s0,4(a0)
    1962:	0808                	addi	a0,sp,16
    1964:	c62e                	sw	a1,12(sp)
    1966:	2a59                	jal	1afc <RCC_GetClocksFreq>
    1968:	47e2                	lw	a5,24(sp)
    196a:	000f4737          	lui	a4,0xf4
    196e:	24070713          	addi	a4,a4,576 # f4240 <_data_lma+0xef8e8>
    1972:	02e7d733          	divu	a4,a5,a4
    1976:	0442                	slli	s0,s0,0x10
    1978:	8041                	srli	s0,s0,0x10
    197a:	fc047413          	andi	s0,s0,-64
    197e:	0442                	slli	s0,s0,0x10
    1980:	8041                	srli	s0,s0,0x10
    1982:	45b2                	lw	a1,12(sp)
    1984:	66e1                	lui	a3,0x18
    1986:	6a068693          	addi	a3,a3,1696 # 186a0 <_data_lma+0x13d48>
    198a:	8c59                	or	s0,s0,a4
    198c:	0442                	slli	s0,s0,0x10
    198e:	8041                	srli	s0,s0,0x10
    1990:	a0c2                	sh	s0,4(s1)
    1992:	209a                	lhu	a4,0(s1)
    1994:	0742                	slli	a4,a4,0x10
    1996:	8341                	srli	a4,a4,0x10
    1998:	9b79                	andi	a4,a4,-2
    199a:	0742                	slli	a4,a4,0x10
    199c:	8341                	srli	a4,a4,0x10
    199e:	a09a                	sh	a4,0(s1)
    19a0:	4198                	lw	a4,0(a1)
    19a2:	04e6e463          	bltu	a3,a4,19ea <I2C_Init+0x92>
    19a6:	0706                	slli	a4,a4,0x1
    19a8:	02e7d733          	divu	a4,a5,a4
    19ac:	4691                	li	a3,4
    19ae:	87ba                	mv	a5,a4
    19b0:	0742                	slli	a4,a4,0x10
    19b2:	8341                	srli	a4,a4,0x10
    19b4:	00d77363          	bgeu	a4,a3,19ba <I2C_Init+0x62>
    19b8:	4791                	li	a5,4
    19ba:	07c2                	slli	a5,a5,0x10
    19bc:	83c1                	srli	a5,a5,0x10
    19be:	acde                	sh	a5,28(s1)
    19c0:	209e                	lhu	a5,0(s1)
    19c2:	21da                	lhu	a4,4(a1)
    19c4:	25b6                	lhu	a3,10(a1)
    19c6:	0017e793          	ori	a5,a5,1
    19ca:	a09e                	sh	a5,0(s1)
    19cc:	209e                	lhu	a5,0(s1)
    19ce:	8f55                	or	a4,a4,a3
    19d0:	07c2                	slli	a5,a5,0x10
    19d2:	83c1                	srli	a5,a5,0x10
    19d4:	bf57f793          	andi	a5,a5,-1035
    19d8:	8fd9                	or	a5,a5,a4
    19da:	a09e                	sh	a5,0(s1)
    19dc:	259a                	lhu	a4,8(a1)
    19de:	25de                	lhu	a5,12(a1)
    19e0:	8fd9                	or	a5,a5,a4
    19e2:	a49e                	sh	a5,8(s1)
    19e4:	6105                	addi	sp,sp,32
    19e6:	a5dfe06f          	j	442 <__riscv_restore_0>
    19ea:	21f2                	lhu	a2,6(a1)
    19ec:	66b1                	lui	a3,0xc
    19ee:	16fd                	addi	a3,a3,-1
    19f0:	02d61163          	bne	a2,a3,1a12 <I2C_Init+0xba>
    19f4:	468d                	li	a3,3
    19f6:	02d70733          	mul	a4,a4,a3
    19fa:	02e7d7b3          	divu	a5,a5,a4
    19fe:	07c2                	slli	a5,a5,0x10
    1a00:	83c1                	srli	a5,a5,0x10
    1a02:	01479713          	slli	a4,a5,0x14
    1a06:	e319                	bnez	a4,1a0c <I2C_Init+0xb4>
    1a08:	0017e793          	ori	a5,a5,1
    1a0c:	6721                	lui	a4,0x8
    1a0e:	8fd9                	or	a5,a5,a4
    1a10:	b77d                	j	19be <I2C_Init+0x66>
    1a12:	46e5                	li	a3,25
    1a14:	02d70733          	mul	a4,a4,a3
    1a18:	02e7d7b3          	divu	a5,a5,a4
    1a1c:	6711                	lui	a4,0x4
    1a1e:	07c2                	slli	a5,a5,0x10
    1a20:	83c1                	srli	a5,a5,0x10
    1a22:	8fd9                	or	a5,a5,a4
    1a24:	bff9                	j	1a02 <I2C_Init+0xaa>

00001a26 <I2C_Cmd>:
    1a26:	211e                	lhu	a5,0(a0)
    1a28:	c589                	beqz	a1,1a32 <I2C_Cmd+0xc>
    1a2a:	0017e793          	ori	a5,a5,1
    1a2e:	a11e                	sh	a5,0(a0)
    1a30:	8082                	ret
    1a32:	07c2                	slli	a5,a5,0x10
    1a34:	83c1                	srli	a5,a5,0x10
    1a36:	9bf9                	andi	a5,a5,-2
    1a38:	07c2                	slli	a5,a5,0x10
    1a3a:	83c1                	srli	a5,a5,0x10
    1a3c:	bfcd                	j	1a2e <I2C_Cmd+0x8>

00001a3e <I2C_GenerateSTART>:
    1a3e:	211e                	lhu	a5,0(a0)
    1a40:	c589                	beqz	a1,1a4a <I2C_GenerateSTART+0xc>
    1a42:	1007e793          	ori	a5,a5,256
    1a46:	a11e                	sh	a5,0(a0)
    1a48:	8082                	ret
    1a4a:	07c2                	slli	a5,a5,0x10
    1a4c:	83c1                	srli	a5,a5,0x10
    1a4e:	eff7f793          	andi	a5,a5,-257
    1a52:	07c2                	slli	a5,a5,0x10
    1a54:	83c1                	srli	a5,a5,0x10
    1a56:	bfc5                	j	1a46 <I2C_GenerateSTART+0x8>

00001a58 <I2C_GenerateSTOP>:
    1a58:	211e                	lhu	a5,0(a0)
    1a5a:	c589                	beqz	a1,1a64 <I2C_GenerateSTOP+0xc>
    1a5c:	2007e793          	ori	a5,a5,512
    1a60:	a11e                	sh	a5,0(a0)
    1a62:	8082                	ret
    1a64:	07c2                	slli	a5,a5,0x10
    1a66:	83c1                	srli	a5,a5,0x10
    1a68:	dff7f793          	andi	a5,a5,-513
    1a6c:	07c2                	slli	a5,a5,0x10
    1a6e:	83c1                	srli	a5,a5,0x10
    1a70:	bfc5                	j	1a60 <I2C_GenerateSTOP+0x8>

00001a72 <I2C_AcknowledgeConfig>:
    1a72:	211e                	lhu	a5,0(a0)
    1a74:	c589                	beqz	a1,1a7e <I2C_AcknowledgeConfig+0xc>
    1a76:	4007e793          	ori	a5,a5,1024
    1a7a:	a11e                	sh	a5,0(a0)
    1a7c:	8082                	ret
    1a7e:	07c2                	slli	a5,a5,0x10
    1a80:	83c1                	srli	a5,a5,0x10
    1a82:	bff7f793          	andi	a5,a5,-1025
    1a86:	07c2                	slli	a5,a5,0x10
    1a88:	83c1                	srli	a5,a5,0x10
    1a8a:	bfc5                	j	1a7a <I2C_AcknowledgeConfig+0x8>

00001a8c <I2C_SendData>:
    1a8c:	a90e                	sh	a1,16(a0)
    1a8e:	8082                	ret

00001a90 <I2C_ReceiveData>:
    1a90:	290a                	lhu	a0,16(a0)
    1a92:	0ff57513          	andi	a0,a0,255
    1a96:	8082                	ret

00001a98 <I2C_Send7bitAddress>:
    1a98:	0fe5f793          	andi	a5,a1,254
    1a9c:	c219                	beqz	a2,1aa2 <I2C_Send7bitAddress+0xa>
    1a9e:	0015e793          	ori	a5,a1,1
    1aa2:	07c2                	slli	a5,a5,0x10
    1aa4:	83c1                	srli	a5,a5,0x10
    1aa6:	a91e                	sh	a5,16(a0)
    1aa8:	8082                	ret

00001aaa <I2C_CheckEvent>:
    1aaa:	295e                	lhu	a5,20(a0)
    1aac:	2d0a                	lhu	a0,24(a0)
    1aae:	0542                	slli	a0,a0,0x10
    1ab0:	8d5d                	or	a0,a0,a5
    1ab2:	8d6d                	and	a0,a0,a1
    1ab4:	0522                	slli	a0,a0,0x8
    1ab6:	8121                	srli	a0,a0,0x8
    1ab8:	8d0d                	sub	a0,a0,a1
    1aba:	00153513          	seqz	a0,a0
    1abe:	8082                	ret

00001ac0 <I2C_GetFlagStatus>:
    1ac0:	1141                	addi	sp,sp,-16
    1ac2:	c402                	sw	zero,8(sp)
    1ac4:	c602                	sw	zero,12(sp)
    1ac6:	01c5d793          	srli	a5,a1,0x1c
    1aca:	c62a                	sw	a0,12(sp)
    1acc:	c43e                	sw	a5,8(sp)
    1ace:	47a2                	lw	a5,8(sp)
    1ad0:	05a2                	slli	a1,a1,0x8
    1ad2:	81a1                	srli	a1,a1,0x8
    1ad4:	cb99                	beqz	a5,1aea <I2C_GetFlagStatus+0x2a>
    1ad6:	47b2                	lw	a5,12(sp)
    1ad8:	07d1                	addi	a5,a5,20
    1ada:	c63e                	sw	a5,12(sp)
    1adc:	47b2                	lw	a5,12(sp)
    1ade:	4388                	lw	a0,0(a5)
    1ae0:	0141                	addi	sp,sp,16
    1ae2:	8d6d                	and	a0,a0,a1
    1ae4:	00a03533          	snez	a0,a0
    1ae8:	8082                	ret
    1aea:	47b2                	lw	a5,12(sp)
    1aec:	81c1                	srli	a1,a1,0x10
    1aee:	07e1                	addi	a5,a5,24
    1af0:	b7ed                	j	1ada <I2C_GetFlagStatus+0x1a>

00001af2 <NVIC_PriorityGroupConfig>:
    1af2:	200007b7          	lui	a5,0x20000
    1af6:	0ca7a623          	sw	a0,204(a5) # 200000cc <NVIC_Priority_Group>
    1afa:	8082                	ret

00001afc <RCC_GetClocksFreq>:
    1afc:	02dc77b7          	lui	a5,0x2dc7
    1b00:	c0078793          	addi	a5,a5,-1024 # 2dc6c00 <_data_lma+0x2dc22a8>
    1b04:	c11c                	sw	a5,0(a0)
    1b06:	40021637          	lui	a2,0x40021
    1b0a:	4258                	lw	a4,4(a2)
    1b0c:	8311                	srli	a4,a4,0x4
    1b0e:	00f77693          	andi	a3,a4,15
    1b12:	20000737          	lui	a4,0x20000
    1b16:	00070713          	mv	a4,a4
    1b1a:	9736                	add	a4,a4,a3
    1b1c:	2314                	lbu	a3,0(a4)
    1b1e:	4250                	lw	a2,4(a2)
    1b20:	0ff6f693          	andi	a3,a3,255
    1b24:	08067613          	andi	a2,a2,128
    1b28:	00d7d733          	srl	a4,a5,a3
    1b2c:	e219                	bnez	a2,1b32 <RCC_GetClocksFreq+0x36>
    1b2e:	02d7d733          	divu	a4,a5,a3
    1b32:	c158                	sw	a4,4(a0)
    1b34:	c518                	sw	a4,8(a0)
    1b36:	c558                	sw	a4,12(a0)
    1b38:	8082                	ret

00001b3a <RCC_APB2PeriphClockCmd>:
    1b3a:	c599                	beqz	a1,1b48 <RCC_APB2PeriphClockCmd+0xe>
    1b3c:	40021737          	lui	a4,0x40021
    1b40:	4f1c                	lw	a5,24(a4)
    1b42:	8d5d                	or	a0,a0,a5
    1b44:	cf08                	sw	a0,24(a4)
    1b46:	8082                	ret
    1b48:	400217b7          	lui	a5,0x40021
    1b4c:	4f98                	lw	a4,24(a5)
    1b4e:	fff54513          	not	a0,a0
    1b52:	8d79                	and	a0,a0,a4
    1b54:	cf88                	sw	a0,24(a5)
    1b56:	8082                	ret

00001b58 <RCC_APB1PeriphClockCmd>:
    1b58:	c599                	beqz	a1,1b66 <RCC_APB1PeriphClockCmd+0xe>
    1b5a:	40021737          	lui	a4,0x40021
    1b5e:	4f5c                	lw	a5,28(a4)
    1b60:	8d5d                	or	a0,a0,a5
    1b62:	cf48                	sw	a0,28(a4)
    1b64:	8082                	ret
    1b66:	400217b7          	lui	a5,0x40021
    1b6a:	4fd8                	lw	a4,28(a5)
    1b6c:	fff54513          	not	a0,a0
    1b70:	8d79                	and	a0,a0,a4
    1b72:	cfc8                	sw	a0,28(a5)
    1b74:	8082                	ret

00001b76 <USART_Init>:
    1b76:	8a9fe2ef          	jal	t0,41e <__riscv_save_0>
    1b7a:	2916                	lhu	a3,16(a0)
    1b7c:	77f5                	lui	a5,0xffffd
    1b7e:	17fd                	addi	a5,a5,-1
    1b80:	8ff5                	and	a5,a5,a3
    1b82:	21f6                	lhu	a3,6(a1)
    1b84:	25da                	lhu	a4,12(a1)
    1b86:	1101                	addi	sp,sp,-32
    1b88:	8fd5                	or	a5,a5,a3
    1b8a:	a91e                	sh	a5,16(a0)
    1b8c:	2556                	lhu	a3,12(a0)
    1b8e:	77fd                	lui	a5,0xfffff
    1b90:	9f378793          	addi	a5,a5,-1549 # ffffe9f3 <__freertos_irq_stack_top+0xdfff99f3>
    1b94:	8ff5                	and	a5,a5,a3
    1b96:	21d6                	lhu	a3,4(a1)
    1b98:	842a                	mv	s0,a0
    1b9a:	c62e                	sw	a1,12(sp)
    1b9c:	8fd5                	or	a5,a5,a3
    1b9e:	2596                	lhu	a3,8(a1)
    1ba0:	8fd5                	or	a5,a5,a3
    1ba2:	25b6                	lhu	a3,10(a1)
    1ba4:	8fd5                	or	a5,a5,a3
    1ba6:	a55e                	sh	a5,12(a0)
    1ba8:	295e                	lhu	a5,20(a0)
    1baa:	07c2                	slli	a5,a5,0x10
    1bac:	83c1                	srli	a5,a5,0x10
    1bae:	cff7f793          	andi	a5,a5,-769
    1bb2:	8fd9                	or	a5,a5,a4
    1bb4:	a95e                	sh	a5,20(a0)
    1bb6:	0808                	addi	a0,sp,16
    1bb8:	3791                	jal	1afc <RCC_GetClocksFreq>
    1bba:	400147b7          	lui	a5,0x40014
    1bbe:	80078793          	addi	a5,a5,-2048 # 40013800 <__freertos_irq_stack_top+0x2000e800>
    1bc2:	45b2                	lw	a1,12(sp)
    1bc4:	02f41e63          	bne	s0,a5,1c00 <USART_Init+0x8a>
    1bc8:	47f2                	lw	a5,28(sp)
    1bca:	4765                	li	a4,25
    1bcc:	02e787b3          	mul	a5,a5,a4
    1bd0:	4198                	lw	a4,0(a1)
    1bd2:	06400693          	li	a3,100
    1bd6:	070a                	slli	a4,a4,0x2
    1bd8:	02e7d7b3          	divu	a5,a5,a4
    1bdc:	02d7d733          	divu	a4,a5,a3
    1be0:	02d7f7b3          	remu	a5,a5,a3
    1be4:	0712                	slli	a4,a4,0x4
    1be6:	0792                	slli	a5,a5,0x4
    1be8:	03278793          	addi	a5,a5,50
    1bec:	02d7d7b3          	divu	a5,a5,a3
    1bf0:	8bbd                	andi	a5,a5,15
    1bf2:	8fd9                	or	a5,a5,a4
    1bf4:	07c2                	slli	a5,a5,0x10
    1bf6:	83c1                	srli	a5,a5,0x10
    1bf8:	a41e                	sh	a5,8(s0)
    1bfa:	6105                	addi	sp,sp,32
    1bfc:	847fe06f          	j	442 <__riscv_restore_0>
    1c00:	47e2                	lw	a5,24(sp)
    1c02:	b7e1                	j	1bca <USART_Init+0x54>

00001c04 <USART_Cmd>:
    1c04:	c591                	beqz	a1,1c10 <USART_Cmd+0xc>
    1c06:	255e                	lhu	a5,12(a0)
    1c08:	6709                	lui	a4,0x2
    1c0a:	8fd9                	or	a5,a5,a4
    1c0c:	a55e                	sh	a5,12(a0)
    1c0e:	8082                	ret
    1c10:	255a                	lhu	a4,12(a0)
    1c12:	77f9                	lui	a5,0xffffe
    1c14:	17fd                	addi	a5,a5,-1
    1c16:	8ff9                	and	a5,a5,a4
    1c18:	bfd5                	j	1c0c <USART_Cmd+0x8>

00001c1a <USART_SendData>:
    1c1a:	1ff5f593          	andi	a1,a1,511
    1c1e:	a14e                	sh	a1,4(a0)
    1c20:	8082                	ret

00001c22 <USART_GetFlagStatus>:
    1c22:	210a                	lhu	a0,0(a0)
    1c24:	8d6d                	and	a0,a0,a1
    1c26:	00a03533          	snez	a0,a0
    1c2a:	8082                	ret

00001c2c <prvInsertBlockIntoFreeList>:
    1c2c:	200007b7          	lui	a5,0x20000
    1c30:	0e878793          	addi	a5,a5,232 # 200000e8 <xStart>
    1c34:	4398                	lw	a4,0(a5)
    1c36:	02a76f63          	bltu	a4,a0,1c74 <prvInsertBlockIntoFreeList+0x48>
    1c3a:	43d0                	lw	a2,4(a5)
    1c3c:	00c786b3          	add	a3,a5,a2
    1c40:	00d51663          	bne	a0,a3,1c4c <prvInsertBlockIntoFreeList+0x20>
    1c44:	4154                	lw	a3,4(a0)
    1c46:	853e                	mv	a0,a5
    1c48:	96b2                	add	a3,a3,a2
    1c4a:	c3d4                	sw	a3,4(a5)
    1c4c:	4150                	lw	a2,4(a0)
    1c4e:	00c506b3          	add	a3,a0,a2
    1c52:	00d71c63          	bne	a4,a3,1c6a <prvInsertBlockIntoFreeList+0x3e>
    1c56:	200006b7          	lui	a3,0x20000
    1c5a:	0d06a683          	lw	a3,208(a3) # 200000d0 <pxEnd>
    1c5e:	00d70663          	beq	a4,a3,1c6a <prvInsertBlockIntoFreeList+0x3e>
    1c62:	4354                	lw	a3,4(a4)
    1c64:	4318                	lw	a4,0(a4)
    1c66:	96b2                	add	a3,a3,a2
    1c68:	c154                	sw	a3,4(a0)
    1c6a:	c118                	sw	a4,0(a0)
    1c6c:	00f50363          	beq	a0,a5,1c72 <prvInsertBlockIntoFreeList+0x46>
    1c70:	c388                	sw	a0,0(a5)
    1c72:	8082                	ret
    1c74:	87ba                	mv	a5,a4
    1c76:	bf7d                	j	1c34 <prvInsertBlockIntoFreeList+0x8>

00001c78 <pvPortMalloc>:
    1c78:	f8cfe2ef          	jal	t0,404 <__riscv_save_4>
    1c7c:	1141                	addi	sp,sp,-16
    1c7e:	c62a                	sw	a0,12(sp)
    1c80:	3d7000ef          	jal	ra,2856 <vTaskSuspendAll>
    1c84:	200006b7          	lui	a3,0x20000
    1c88:	0d06a783          	lw	a5,208(a3) # 200000d0 <pxEnd>
    1c8c:	20000637          	lui	a2,0x20000
    1c90:	0d068693          	addi	a3,a3,208
    1c94:	0d460613          	addi	a2,a2,212 # 200000d4 <xBlockAllocatedBit>
    1c98:	4532                	lw	a0,12(sp)
    1c9a:	efa1                	bnez	a5,1cf2 <pvPortMalloc+0x7a>
    1c9c:	20000737          	lui	a4,0x20000
    1ca0:	14c70793          	addi	a5,a4,332 # 2000014c <ucHeap>
    1ca4:	00f7f593          	andi	a1,a5,15
    1ca8:	14c70713          	addi	a4,a4,332
    1cac:	c581                	beqz	a1,1cb4 <pvPortMalloc+0x3c>
    1cae:	00f78713          	addi	a4,a5,15
    1cb2:	9b41                	andi	a4,a4,-16
    1cb4:	200005b7          	lui	a1,0x20000
    1cb8:	0e858593          	addi	a1,a1,232 # 200000e8 <xStart>
    1cbc:	0005a223          	sw	zero,4(a1)
    1cc0:	c198                	sw	a4,0(a1)
    1cc2:	658d                	lui	a1,0x3
    1cc4:	15c1                	addi	a1,a1,-16
    1cc6:	97ae                	add	a5,a5,a1
    1cc8:	9bc1                	andi	a5,a5,-16
    1cca:	0007a223          	sw	zero,4(a5)
    1cce:	0007a023          	sw	zero,0(a5)
    1cd2:	40e785b3          	sub	a1,a5,a4
    1cd6:	c29c                	sw	a5,0(a3)
    1cd8:	c31c                	sw	a5,0(a4)
    1cda:	200007b7          	lui	a5,0x20000
    1cde:	0cb7ae23          	sw	a1,220(a5) # 200000dc <xMinimumEverFreeBytesRemaining>
    1ce2:	200007b7          	lui	a5,0x20000
    1ce6:	0cb7ac23          	sw	a1,216(a5) # 200000d8 <xFreeBytesRemaining>
    1cea:	800007b7          	lui	a5,0x80000
    1cee:	c34c                	sw	a1,4(a4)
    1cf0:	c21c                	sw	a5,0(a2)
    1cf2:	00062a03          	lw	s4,0(a2)
    1cf6:	00aa77b3          	and	a5,s4,a0
    1cfa:	e385                	bnez	a5,1d1a <pvPortMalloc+0xa2>
    1cfc:	fff50793          	addi	a5,a0,-1
    1d00:	5739                	li	a4,-18
    1d02:	00f76c63          	bltu	a4,a5,1d1a <pvPortMalloc+0xa2>
    1d06:	01050793          	addi	a5,a0,16
    1d0a:	00f7f713          	andi	a4,a5,15
    1d0e:	c341                	beqz	a4,1d8e <pvPortMalloc+0x116>
    1d10:	ff07f713          	andi	a4,a5,-16
    1d14:	0741                	addi	a4,a4,16
    1d16:	06e7eb63          	bltu	a5,a4,1d8c <pvPortMalloc+0x114>
    1d1a:	4481                	li	s1,0
    1d1c:	a089                	j	1d5e <pvPortMalloc+0xe6>
    1d1e:	8722                	mv	a4,s0
    1d20:	842e                	mv	s0,a1
    1d22:	a061                	j	1daa <pvPortMalloc+0x132>
    1d24:	c158                	sw	a4,4(a0)
    1d26:	c05c                	sw	a5,4(s0)
    1d28:	3711                	jal	1c2c <prvInsertBlockIntoFreeList>
    1d2a:	4058                	lw	a4,4(s0)
    1d2c:	200006b7          	lui	a3,0x20000
    1d30:	0dc68693          	addi	a3,a3,220 # 200000dc <xMinimumEverFreeBytesRemaining>
    1d34:	4290                	lw	a2,0(a3)
    1d36:	40e907b3          	sub	a5,s2,a4
    1d3a:	00f9a023          	sw	a5,0(s3)
    1d3e:	00c7f363          	bgeu	a5,a2,1d44 <pvPortMalloc+0xcc>
    1d42:	c29c                	sw	a5,0(a3)
    1d44:	200007b7          	lui	a5,0x20000
    1d48:	00ea6733          	or	a4,s4,a4
    1d4c:	0e078793          	addi	a5,a5,224 # 200000e0 <xNumberOfSuccessfulAllocations>
    1d50:	c058                	sw	a4,4(s0)
    1d52:	4398                	lw	a4,0(a5)
    1d54:	04c1                	addi	s1,s1,16
    1d56:	00042023          	sw	zero,0(s0)
    1d5a:	0705                	addi	a4,a4,1
    1d5c:	c398                	sw	a4,0(a5)
    1d5e:	4bf000ef          	jal	ra,2a1c <xTaskResumeAll>
    1d62:	00f4f793          	andi	a5,s1,15
    1d66:	cbd1                	beqz	a5,1dfa <pvPortMalloc+0x182>
    1d68:	6789                	lui	a5,0x2
    1d6a:	80078793          	addi	a5,a5,-2048 # 1800 <GPIO_Init+0x16>
    1d6e:	30079073          	csrw	mstatus,a5
    1d72:	00004637          	lui	a2,0x4
    1d76:	00004537          	lui	a0,0x4
    1d7a:	7cc60613          	addi	a2,a2,1996 # 47cc <digitCode+0xe8>
    1d7e:	11000593          	li	a1,272
    1d82:	7f450513          	addi	a0,a0,2036 # 47f4 <digitCode+0x110>
    1d86:	686010ef          	jal	ra,340c <iprintf>
    1d8a:	a001                	j	1d8a <pvPortMalloc+0x112>
    1d8c:	87ba                	mv	a5,a4
    1d8e:	20000737          	lui	a4,0x20000
    1d92:	0d872903          	lw	s2,216(a4) # 200000d8 <xFreeBytesRemaining>
    1d96:	0d870993          	addi	s3,a4,216
    1d9a:	f8f960e3          	bltu	s2,a5,1d1a <pvPortMalloc+0xa2>
    1d9e:	20000737          	lui	a4,0x20000
    1da2:	0e872403          	lw	s0,232(a4) # 200000e8 <xStart>
    1da6:	0e870713          	addi	a4,a4,232
    1daa:	4050                	lw	a2,4(s0)
    1dac:	00f67463          	bgeu	a2,a5,1db4 <pvPortMalloc+0x13c>
    1db0:	400c                	lw	a1,0(s0)
    1db2:	f5b5                	bnez	a1,1d1e <pvPortMalloc+0xa6>
    1db4:	4294                	lw	a3,0(a3)
    1db6:	f68682e3          	beq	a3,s0,1d1a <pvPortMalloc+0xa2>
    1dba:	4014                	lw	a3,0(s0)
    1dbc:	4304                	lw	s1,0(a4)
    1dbe:	c314                	sw	a3,0(a4)
    1dc0:	40f60733          	sub	a4,a2,a5
    1dc4:	02000693          	li	a3,32
    1dc8:	f6e6f1e3          	bgeu	a3,a4,1d2a <pvPortMalloc+0xb2>
    1dcc:	00f40533          	add	a0,s0,a5
    1dd0:	00f57693          	andi	a3,a0,15
    1dd4:	daa1                	beqz	a3,1d24 <pvPortMalloc+0xac>
    1dd6:	6789                	lui	a5,0x2
    1dd8:	80078793          	addi	a5,a5,-2048 # 1800 <GPIO_Init+0x16>
    1ddc:	30079073          	csrw	mstatus,a5
    1de0:	00004637          	lui	a2,0x4
    1de4:	00004537          	lui	a0,0x4
    1de8:	7cc60613          	addi	a2,a2,1996 # 47cc <digitCode+0xe8>
    1dec:	0cf00593          	li	a1,207
    1df0:	7f450513          	addi	a0,a0,2036 # 47f4 <digitCode+0x110>
    1df4:	618010ef          	jal	ra,340c <iprintf>
    1df8:	a001                	j	1df8 <pvPortMalloc+0x180>
    1dfa:	8526                	mv	a0,s1
    1dfc:	0141                	addi	sp,sp,16
    1dfe:	e3afe06f          	j	438 <__riscv_restore_4>

00001e02 <vPortFree>:
    1e02:	c155                	beqz	a0,1ea6 <vPortFree+0xa4>
    1e04:	e1afe2ef          	jal	t0,41e <__riscv_save_0>
    1e08:	200007b7          	lui	a5,0x20000
    1e0c:	ff452703          	lw	a4,-12(a0)
    1e10:	0d47a783          	lw	a5,212(a5) # 200000d4 <xBlockAllocatedBit>
    1e14:	842a                	mv	s0,a0
    1e16:	00f776b3          	and	a3,a4,a5
    1e1a:	e29d                	bnez	a3,1e40 <vPortFree+0x3e>
    1e1c:	6789                	lui	a5,0x2
    1e1e:	80078793          	addi	a5,a5,-2048 # 1800 <GPIO_Init+0x16>
    1e22:	30079073          	csrw	mstatus,a5
    1e26:	00004637          	lui	a2,0x4
    1e2a:	00004537          	lui	a0,0x4
    1e2e:	7cc60613          	addi	a2,a2,1996 # 47cc <digitCode+0xe8>
    1e32:	12400593          	li	a1,292
    1e36:	7f450513          	addi	a0,a0,2036 # 47f4 <digitCode+0x110>
    1e3a:	5d2010ef          	jal	ra,340c <iprintf>
    1e3e:	a001                	j	1e3e <vPortFree+0x3c>
    1e40:	ff052683          	lw	a3,-16(a0)
    1e44:	c29d                	beqz	a3,1e6a <vPortFree+0x68>
    1e46:	6789                	lui	a5,0x2
    1e48:	80078793          	addi	a5,a5,-2048 # 1800 <GPIO_Init+0x16>
    1e4c:	30079073          	csrw	mstatus,a5
    1e50:	00004637          	lui	a2,0x4
    1e54:	00004537          	lui	a0,0x4
    1e58:	7cc60613          	addi	a2,a2,1996 # 47cc <digitCode+0xe8>
    1e5c:	12500593          	li	a1,293
    1e60:	7f450513          	addi	a0,a0,2036 # 47f4 <digitCode+0x110>
    1e64:	5a8010ef          	jal	ra,340c <iprintf>
    1e68:	a001                	j	1e68 <vPortFree+0x66>
    1e6a:	fff7c793          	not	a5,a5
    1e6e:	8ff9                	and	a5,a5,a4
    1e70:	fef52a23          	sw	a5,-12(a0)
    1e74:	1e3000ef          	jal	ra,2856 <vTaskSuspendAll>
    1e78:	200007b7          	lui	a5,0x20000
    1e7c:	0d878793          	addi	a5,a5,216 # 200000d8 <xFreeBytesRemaining>
    1e80:	4394                	lw	a3,0(a5)
    1e82:	ff442703          	lw	a4,-12(s0)
    1e86:	ff040513          	addi	a0,s0,-16
    1e8a:	9736                	add	a4,a4,a3
    1e8c:	c398                	sw	a4,0(a5)
    1e8e:	3b79                	jal	1c2c <prvInsertBlockIntoFreeList>
    1e90:	200007b7          	lui	a5,0x20000
    1e94:	0e478793          	addi	a5,a5,228 # 200000e4 <xNumberOfSuccessfulFrees>
    1e98:	4398                	lw	a4,0(a5)
    1e9a:	0705                	addi	a4,a4,1
    1e9c:	c398                	sw	a4,0(a5)
    1e9e:	37f000ef          	jal	ra,2a1c <xTaskResumeAll>
    1ea2:	da0fe06f          	j	442 <__riscv_restore_0>
    1ea6:	8082                	ret

00001ea8 <vPortSetupTimerInterrupt>:
    1ea8:	e000e7b7          	lui	a5,0xe000e
    1eac:	5741                	li	a4,-16
    1eae:	40e78723          	sb	a4,1038(a5) # e000e40e <__freertos_irq_stack_top+0xc000940e>
    1eb2:	40e78623          	sb	a4,1036(a5)
    1eb6:	e000f7b7          	lui	a5,0xe000f
    1eba:	0007a023          	sw	zero,0(a5) # e000f000 <__freertos_irq_stack_top+0xc000a000>
    1ebe:	0007a223          	sw	zero,4(a5)
    1ec2:	4681                	li	a3,0
    1ec4:	c794                	sw	a3,8(a5)
    1ec6:	4701                	li	a4,0
    1ec8:	c7d8                	sw	a4,12(a5)
    1eca:	20000737          	lui	a4,0x20000
    1ece:	07072583          	lw	a1,112(a4) # 20000070 <SystemCoreClock>
    1ed2:	1f400713          	li	a4,500
    1ed6:	4681                	li	a3,0
    1ed8:	02e5d633          	divu	a2,a1,a4
    1edc:	473d                	li	a4,15
    1ede:	cb90                	sw	a2,16(a5)
    1ee0:	cbd4                	sw	a3,20(a5)
    1ee2:	c398                	sw	a4,0(a5)
    1ee4:	8082                	ret

00001ee6 <xPortStartScheduler>:
    1ee6:	d38fe2ef          	jal	t0,41e <__riscv_save_0>
    1eea:	1141                	addi	sp,sp,-16
    1eec:	c602                	sw	zero,12(sp)
    1eee:	305027f3          	csrr	a5,mtvec
    1ef2:	c63e                	sw	a5,12(sp)
    1ef4:	47b2                	lw	a5,12(sp)
    1ef6:	470d                	li	a4,3
    1ef8:	8b8d                	andi	a5,a5,3
    1efa:	02e78463          	beq	a5,a4,1f22 <xPortStartScheduler+0x3c>
    1efe:	6789                	lui	a5,0x2
    1f00:	80078793          	addi	a5,a5,-2048 # 1800 <GPIO_Init+0x16>
    1f04:	30079073          	csrw	mstatus,a5
    1f08:	00005637          	lui	a2,0x5
    1f0c:	00004537          	lui	a0,0x4
    1f10:	81860613          	addi	a2,a2,-2024 # 4818 <digitCode+0x134>
    1f14:	0b600593          	li	a1,182
    1f18:	7f450513          	addi	a0,a0,2036 # 47f4 <digitCode+0x110>
    1f1c:	4f0010ef          	jal	ra,340c <iprintf>
    1f20:	a001                	j	1f20 <xPortStartScheduler+0x3a>
    1f22:	200057b7          	lui	a5,0x20005
    1f26:	00078793          	mv	a5,a5
    1f2a:	8bbd                	andi	a5,a5,15
    1f2c:	c39d                	beqz	a5,1f52 <xPortStartScheduler+0x6c>
    1f2e:	6789                	lui	a5,0x2
    1f30:	80078793          	addi	a5,a5,-2048 # 1800 <GPIO_Init+0x16>
    1f34:	30079073          	csrw	mstatus,a5
    1f38:	00005637          	lui	a2,0x5
    1f3c:	00004537          	lui	a0,0x4
    1f40:	81860613          	addi	a2,a2,-2024 # 4818 <digitCode+0x134>
    1f44:	0bb00593          	li	a1,187
    1f48:	7f450513          	addi	a0,a0,2036 # 47f4 <digitCode+0x110>
    1f4c:	4c0010ef          	jal	ra,340c <iprintf>
    1f50:	a001                	j	1f50 <xPortStartScheduler+0x6a>
    1f52:	3f99                	jal	1ea8 <vPortSetupTimerInterrupt>
    1f54:	e000e7b7          	lui	a5,0xe000e
    1f58:	6711                	lui	a4,0x4
    1f5a:	10e7a023          	sw	a4,256(a5) # e000e100 <__freertos_irq_stack_top+0xc0009100>
    1f5e:	6705                	lui	a4,0x1
    1f60:	10e7a023          	sw	a4,256(a5)
    1f64:	8001a823          	sw	zero,-2032(gp) # 20000080 <uxCriticalNesting>
    1f68:	a98fe0ef          	jal	ra,200 <xPortStartFirstTask>
    1f6c:	4501                	li	a0,0
    1f6e:	0141                	addi	sp,sp,16
    1f70:	cd2fe06f          	j	442 <__riscv_restore_0>

00001f74 <SysTick_Handler>:
    1f74:	7139                	addi	sp,sp,-64
    1f76:	de06                	sw	ra,60(sp)
    1f78:	dc16                	sw	t0,56(sp)
    1f7a:	da1a                	sw	t1,52(sp)
    1f7c:	d81e                	sw	t2,48(sp)
    1f7e:	d62a                	sw	a0,44(sp)
    1f80:	d42e                	sw	a1,40(sp)
    1f82:	d232                	sw	a2,36(sp)
    1f84:	d036                	sw	a3,32(sp)
    1f86:	ce3a                	sw	a4,28(sp)
    1f88:	cc3e                	sw	a5,24(sp)
    1f8a:	ca42                	sw	a6,20(sp)
    1f8c:	c846                	sw	a7,16(sp)
    1f8e:	c672                	sw	t3,12(sp)
    1f90:	c476                	sw	t4,8(sp)
    1f92:	c27a                	sw	t5,4(sp)
    1f94:	c07e                	sw	t6,0(sp)
    1f96:	34011173          	csrrw	sp,mscratch,sp
    1f9a:	6789                	lui	a5,0x2
    1f9c:	80078793          	addi	a5,a5,-2048 # 1800 <GPIO_Init+0x16>
    1fa0:	30079073          	csrw	mstatus,a5
    1fa4:	e000f7b7          	lui	a5,0xe000f
    1fa8:	0007a223          	sw	zero,4(a5) # e000f004 <__freertos_irq_stack_top+0xc000a004>
    1fac:	0c5000ef          	jal	ra,2870 <xTaskIncrementTick>
    1fb0:	c511                	beqz	a0,1fbc <SysTick_Handler+0x48>
    1fb2:	e000e7b7          	lui	a5,0xe000e
    1fb6:	6711                	lui	a4,0x4
    1fb8:	20e7a023          	sw	a4,512(a5) # e000e200 <__freertos_irq_stack_top+0xc0009200>
    1fbc:	6789                	lui	a5,0x2
    1fbe:	88878793          	addi	a5,a5,-1912 # 1888 <GPIO_Init+0x9e>
    1fc2:	30079073          	csrw	mstatus,a5
    1fc6:	34011173          	csrrw	sp,mscratch,sp
    1fca:	50f2                	lw	ra,60(sp)
    1fcc:	52e2                	lw	t0,56(sp)
    1fce:	5352                	lw	t1,52(sp)
    1fd0:	53c2                	lw	t2,48(sp)
    1fd2:	5532                	lw	a0,44(sp)
    1fd4:	55a2                	lw	a1,40(sp)
    1fd6:	5612                	lw	a2,36(sp)
    1fd8:	5682                	lw	a3,32(sp)
    1fda:	4772                	lw	a4,28(sp)
    1fdc:	47e2                	lw	a5,24(sp)
    1fde:	4852                	lw	a6,20(sp)
    1fe0:	48c2                	lw	a7,16(sp)
    1fe2:	4e32                	lw	t3,12(sp)
    1fe4:	4ea2                	lw	t4,8(sp)
    1fe6:	4f12                	lw	t5,4(sp)
    1fe8:	4f82                	lw	t6,0(sp)
    1fea:	6121                	addi	sp,sp,64
    1fec:	30200073          	mret

00001ff0 <vPortEnterCritical>:
    1ff0:	6789                	lui	a5,0x2
    1ff2:	80078793          	addi	a5,a5,-2048 # 1800 <GPIO_Init+0x16>
    1ff6:	30079073          	csrw	mstatus,a5
    1ffa:	81018793          	addi	a5,gp,-2032 # 20000080 <uxCriticalNesting>
    1ffe:	4398                	lw	a4,0(a5)
    2000:	0705                	addi	a4,a4,1
    2002:	c398                	sw	a4,0(a5)
    2004:	8082                	ret

00002006 <vPortExitCritical>:
    2006:	81018713          	addi	a4,gp,-2032 # 20000080 <uxCriticalNesting>
    200a:	431c                	lw	a5,0(a4)
    200c:	e78d                	bnez	a5,2036 <vPortExitCritical+0x30>
    200e:	c10fe2ef          	jal	t0,41e <__riscv_save_0>
    2012:	6789                	lui	a5,0x2
    2014:	80078793          	addi	a5,a5,-2048 # 1800 <GPIO_Init+0x16>
    2018:	30079073          	csrw	mstatus,a5
    201c:	00005637          	lui	a2,0x5
    2020:	00004537          	lui	a0,0x4
    2024:	81860613          	addi	a2,a2,-2024 # 4818 <digitCode+0x134>
    2028:	10300593          	li	a1,259
    202c:	7f450513          	addi	a0,a0,2036 # 47f4 <digitCode+0x110>
    2030:	3dc010ef          	jal	ra,340c <iprintf>
    2034:	a001                	j	2034 <vPortExitCritical+0x2e>
    2036:	17fd                	addi	a5,a5,-1
    2038:	c31c                	sw	a5,0(a4)
    203a:	e791                	bnez	a5,2046 <vPortExitCritical+0x40>
    203c:	6789                	lui	a5,0x2
    203e:	88878793          	addi	a5,a5,-1912 # 1888 <GPIO_Init+0x9e>
    2042:	30079073          	csrw	mstatus,a5
    2046:	8082                	ret

00002048 <vListInitialise>:
    2048:	00850793          	addi	a5,a0,8
    204c:	577d                	li	a4,-1
    204e:	c15c                	sw	a5,4(a0)
    2050:	c518                	sw	a4,8(a0)
    2052:	c55c                	sw	a5,12(a0)
    2054:	c91c                	sw	a5,16(a0)
    2056:	00052023          	sw	zero,0(a0)
    205a:	8082                	ret

0000205c <vListInitialiseItem>:
    205c:	00052823          	sw	zero,16(a0)
    2060:	8082                	ret

00002062 <vListInsert>:
    2062:	4198                	lw	a4,0(a1)
    2064:	56fd                	li	a3,-1
    2066:	00850793          	addi	a5,a0,8
    206a:	00d71e63          	bne	a4,a3,2086 <vListInsert+0x24>
    206e:	491c                	lw	a5,16(a0)
    2070:	43d8                	lw	a4,4(a5)
    2072:	c1d8                	sw	a4,4(a1)
    2074:	c70c                	sw	a1,8(a4)
    2076:	c59c                	sw	a5,8(a1)
    2078:	c3cc                	sw	a1,4(a5)
    207a:	411c                	lw	a5,0(a0)
    207c:	c988                	sw	a0,16(a1)
    207e:	0785                	addi	a5,a5,1
    2080:	c11c                	sw	a5,0(a0)
    2082:	8082                	ret
    2084:	87b6                	mv	a5,a3
    2086:	43d4                	lw	a3,4(a5)
    2088:	4290                	lw	a2,0(a3)
    208a:	fec77de3          	bgeu	a4,a2,2084 <vListInsert+0x22>
    208e:	b7cd                	j	2070 <vListInsert+0xe>

00002090 <uxListRemove>:
    2090:	4154                	lw	a3,4(a0)
    2092:	4518                	lw	a4,8(a0)
    2094:	491c                	lw	a5,16(a0)
    2096:	c698                	sw	a4,8(a3)
    2098:	c354                	sw	a3,4(a4)
    209a:	43d4                	lw	a3,4(a5)
    209c:	00a69363          	bne	a3,a0,20a2 <uxListRemove+0x12>
    20a0:	c3d8                	sw	a4,4(a5)
    20a2:	4398                	lw	a4,0(a5)
    20a4:	00052823          	sw	zero,16(a0)
    20a8:	177d                	addi	a4,a4,-1
    20aa:	c398                	sw	a4,0(a5)
    20ac:	4388                	lw	a0,0(a5)
    20ae:	8082                	ret

000020b0 <prvIsQueueEmpty>:
    20b0:	b6efe2ef          	jal	t0,41e <__riscv_save_0>
    20b4:	1141                	addi	sp,sp,-16
    20b6:	c62a                	sw	a0,12(sp)
    20b8:	3f25                	jal	1ff0 <vPortEnterCritical>
    20ba:	4532                	lw	a0,12(sp)
    20bc:	5d00                	lw	s0,56(a0)
    20be:	37a1                	jal	2006 <vPortExitCritical>
    20c0:	00143513          	seqz	a0,s0
    20c4:	0141                	addi	sp,sp,16
    20c6:	b7cfe06f          	j	442 <__riscv_restore_0>

000020ca <prvCopyDataFromQueue>:
    20ca:	4130                	lw	a2,64(a0)
    20cc:	c215                	beqz	a2,20f0 <prvCopyDataFromQueue+0x26>
    20ce:	b50fe2ef          	jal	t0,41e <__riscv_save_0>
    20d2:	4558                	lw	a4,12(a0)
    20d4:	4514                	lw	a3,8(a0)
    20d6:	87aa                	mv	a5,a0
    20d8:	9732                	add	a4,a4,a2
    20da:	c558                	sw	a4,12(a0)
    20dc:	00d76463          	bltu	a4,a3,20e4 <prvCopyDataFromQueue+0x1a>
    20e0:	4118                	lw	a4,0(a0)
    20e2:	c558                	sw	a4,12(a0)
    20e4:	852e                	mv	a0,a1
    20e6:	47cc                	lw	a1,12(a5)
    20e8:	272010ef          	jal	ra,335a <memcpy>
    20ec:	b56fe06f          	j	442 <__riscv_restore_0>
    20f0:	8082                	ret

000020f2 <prvUnlockQueue>:
    20f2:	b2cfe2ef          	jal	t0,41e <__riscv_save_0>
    20f6:	842a                	mv	s0,a0
    20f8:	3de5                	jal	1ff0 <vPortEnterCritical>
    20fa:	04544483          	lbu	s1,69(s0)
    20fe:	02440913          	addi	s2,s0,36
    2102:	04e2                	slli	s1,s1,0x18
    2104:	84e1                	srai	s1,s1,0x18
    2106:	02904563          	bgtz	s1,2130 <prvUnlockQueue+0x3e>
    210a:	57fd                	li	a5,-1
    210c:	04f402a3          	sb	a5,69(s0)
    2110:	3ddd                	jal	2006 <vPortExitCritical>
    2112:	3df9                	jal	1ff0 <vPortEnterCritical>
    2114:	04444483          	lbu	s1,68(s0)
    2118:	01040913          	addi	s2,s0,16
    211c:	04e2                	slli	s1,s1,0x18
    211e:	84e1                	srai	s1,s1,0x18
    2120:	02904463          	bgtz	s1,2148 <prvUnlockQueue+0x56>
    2124:	57fd                	li	a5,-1
    2126:	04f40223          	sb	a5,68(s0)
    212a:	3df1                	jal	2006 <vPortExitCritical>
    212c:	b16fe06f          	j	442 <__riscv_restore_0>
    2130:	505c                	lw	a5,36(s0)
    2132:	dfe1                	beqz	a5,210a <prvUnlockQueue+0x18>
    2134:	854a                	mv	a0,s2
    2136:	40d000ef          	jal	ra,2d42 <xTaskRemoveFromEventList>
    213a:	c119                	beqz	a0,2140 <prvUnlockQueue+0x4e>
    213c:	5cb000ef          	jal	ra,2f06 <vTaskMissedYield>
    2140:	14fd                	addi	s1,s1,-1
    2142:	04e2                	slli	s1,s1,0x18
    2144:	84e1                	srai	s1,s1,0x18
    2146:	b7c1                	j	2106 <prvUnlockQueue+0x14>
    2148:	481c                	lw	a5,16(s0)
    214a:	dfe9                	beqz	a5,2124 <prvUnlockQueue+0x32>
    214c:	854a                	mv	a0,s2
    214e:	3f5000ef          	jal	ra,2d42 <xTaskRemoveFromEventList>
    2152:	c119                	beqz	a0,2158 <prvUnlockQueue+0x66>
    2154:	5b3000ef          	jal	ra,2f06 <vTaskMissedYield>
    2158:	14fd                	addi	s1,s1,-1
    215a:	04e2                	slli	s1,s1,0x18
    215c:	84e1                	srai	s1,s1,0x18
    215e:	b7c9                	j	2120 <prvUnlockQueue+0x2e>

00002160 <xQueueGenericReset>:
    2160:	abefe2ef          	jal	t0,41e <__riscv_save_0>
    2164:	1141                	addi	sp,sp,-16
    2166:	e11d                	bnez	a0,218c <xQueueGenericReset+0x2c>
    2168:	6789                	lui	a5,0x2
    216a:	80078793          	addi	a5,a5,-2048 # 1800 <GPIO_Init+0x16>
    216e:	30079073          	csrw	mstatus,a5
    2172:	00005637          	lui	a2,0x5
    2176:	00004537          	lui	a0,0x4
    217a:	84060613          	addi	a2,a2,-1984 # 4840 <digitCode+0x15c>
    217e:	11000593          	li	a1,272
    2182:	7f450513          	addi	a0,a0,2036 # 47f4 <digitCode+0x110>
    2186:	286010ef          	jal	ra,340c <iprintf>
    218a:	a001                	j	218a <xQueueGenericReset+0x2a>
    218c:	5d5c                	lw	a5,60(a0)
    218e:	c62e                	sw	a1,12(sp)
    2190:	842a                	mv	s0,a0
    2192:	c3bd                	beqz	a5,21f8 <xQueueGenericReset+0x98>
    2194:	4138                	lw	a4,64(a0)
    2196:	02e7b7b3          	mulhu	a5,a5,a4
    219a:	efb9                	bnez	a5,21f8 <xQueueGenericReset+0x98>
    219c:	3d91                	jal	1ff0 <vPortEnterCritical>
    219e:	4030                	lw	a2,64(s0)
    21a0:	5c58                	lw	a4,60(s0)
    21a2:	4014                	lw	a3,0(s0)
    21a4:	02042c23          	sw	zero,56(s0)
    21a8:	02e607b3          	mul	a5,a2,a4
    21ac:	45b2                	lw	a1,12(sp)
    21ae:	c054                	sw	a3,4(s0)
    21b0:	00f68733          	add	a4,a3,a5
    21b4:	8f91                	sub	a5,a5,a2
    21b6:	97b6                	add	a5,a5,a3
    21b8:	c45c                	sw	a5,12(s0)
    21ba:	57fd                	li	a5,-1
    21bc:	04f40223          	sb	a5,68(s0)
    21c0:	c418                	sw	a4,8(s0)
    21c2:	04f402a3          	sb	a5,69(s0)
    21c6:	e195                	bnez	a1,21ea <xQueueGenericReset+0x8a>
    21c8:	481c                	lw	a5,16(s0)
    21ca:	cb99                	beqz	a5,21e0 <xQueueGenericReset+0x80>
    21cc:	01040513          	addi	a0,s0,16
    21d0:	373000ef          	jal	ra,2d42 <xTaskRemoveFromEventList>
    21d4:	c511                	beqz	a0,21e0 <xQueueGenericReset+0x80>
    21d6:	e000e7b7          	lui	a5,0xe000e
    21da:	6711                	lui	a4,0x4
    21dc:	20e7a023          	sw	a4,512(a5) # e000e200 <__freertos_irq_stack_top+0xc0009200>
    21e0:	351d                	jal	2006 <vPortExitCritical>
    21e2:	4505                	li	a0,1
    21e4:	0141                	addi	sp,sp,16
    21e6:	a5cfe06f          	j	442 <__riscv_restore_0>
    21ea:	01040513          	addi	a0,s0,16
    21ee:	3da9                	jal	2048 <vListInitialise>
    21f0:	02440513          	addi	a0,s0,36
    21f4:	3d91                	jal	2048 <vListInitialise>
    21f6:	b7ed                	j	21e0 <xQueueGenericReset+0x80>
    21f8:	6789                	lui	a5,0x2
    21fa:	80078793          	addi	a5,a5,-2048 # 1800 <GPIO_Init+0x16>
    21fe:	30079073          	csrw	mstatus,a5
    2202:	00005637          	lui	a2,0x5
    2206:	00004537          	lui	a0,0x4
    220a:	84060613          	addi	a2,a2,-1984 # 4840 <digitCode+0x15c>
    220e:	14500593          	li	a1,325
    2212:	7f450513          	addi	a0,a0,2036 # 47f4 <digitCode+0x110>
    2216:	1f6010ef          	jal	ra,340c <iprintf>
    221a:	a001                	j	221a <xQueueGenericReset+0xba>

0000221c <xQueueGenericCreate>:
    221c:	a02fe2ef          	jal	t0,41e <__riscv_save_0>
    2220:	1141                	addi	sp,sp,-16
    2222:	c129                	beqz	a0,2264 <xQueueGenericCreate+0x48>
    2224:	02a5b7b3          	mulhu	a5,a1,a0
    2228:	84aa                	mv	s1,a0
    222a:	ef8d                	bnez	a5,2264 <xQueueGenericCreate+0x48>
    222c:	02b50533          	mul	a0,a0,a1
    2230:	fb700793          	li	a5,-73
    2234:	02a7e863          	bltu	a5,a0,2264 <xQueueGenericCreate+0x48>
    2238:	04850513          	addi	a0,a0,72
    223c:	c62e                	sw	a1,12(sp)
    223e:	a3bff0ef          	jal	ra,1c78 <pvPortMalloc>
    2242:	842a                	mv	s0,a0
    2244:	cd01                	beqz	a0,225c <xQueueGenericCreate+0x40>
    2246:	45b2                	lw	a1,12(sp)
    2248:	87aa                	mv	a5,a0
    224a:	c199                	beqz	a1,2250 <xQueueGenericCreate+0x34>
    224c:	04850793          	addi	a5,a0,72
    2250:	c02c                	sw	a1,64(s0)
    2252:	c01c                	sw	a5,0(s0)
    2254:	dc44                	sw	s1,60(s0)
    2256:	4585                	li	a1,1
    2258:	8522                	mv	a0,s0
    225a:	3719                	jal	2160 <xQueueGenericReset>
    225c:	8522                	mv	a0,s0
    225e:	0141                	addi	sp,sp,16
    2260:	9e2fe06f          	j	442 <__riscv_restore_0>
    2264:	6789                	lui	a5,0x2
    2266:	80078793          	addi	a5,a5,-2048 # 1800 <GPIO_Init+0x16>
    226a:	30079073          	csrw	mstatus,a5
    226e:	00005637          	lui	a2,0x5
    2272:	00004537          	lui	a0,0x4
    2276:	84060613          	addi	a2,a2,-1984 # 4840 <digitCode+0x15c>
    227a:	1c600593          	li	a1,454
    227e:	7f450513          	addi	a0,a0,2036 # 47f4 <digitCode+0x110>
    2282:	18a010ef          	jal	ra,340c <iprintf>
    2286:	a001                	j	2286 <xQueueGenericCreate+0x6a>

00002288 <xQueueReceive>:
    2288:	96efe2ef          	jal	t0,3f6 <__riscv_save_10>
    228c:	1101                	addi	sp,sp,-32
    228e:	c632                	sw	a2,12(sp)
    2290:	e11d                	bnez	a0,22b6 <xQueueReceive+0x2e>
    2292:	6789                	lui	a5,0x2
    2294:	80078793          	addi	a5,a5,-2048 # 1800 <GPIO_Init+0x16>
    2298:	30079073          	csrw	mstatus,a5
    229c:	00005637          	lui	a2,0x5
    22a0:	00004537          	lui	a0,0x4
    22a4:	84060613          	addi	a2,a2,-1984 # 4840 <digitCode+0x15c>
    22a8:	55100593          	li	a1,1361
    22ac:	7f450513          	addi	a0,a0,2036 # 47f4 <digitCode+0x110>
    22b0:	15c010ef          	jal	ra,340c <iprintf>
    22b4:	a001                	j	22b4 <xQueueReceive+0x2c>
    22b6:	842a                	mv	s0,a0
    22b8:	89ae                	mv	s3,a1
    22ba:	e58d                	bnez	a1,22e4 <xQueueReceive+0x5c>
    22bc:	413c                	lw	a5,64(a0)
    22be:	c39d                	beqz	a5,22e4 <xQueueReceive+0x5c>
    22c0:	6789                	lui	a5,0x2
    22c2:	80078793          	addi	a5,a5,-2048 # 1800 <GPIO_Init+0x16>
    22c6:	30079073          	csrw	mstatus,a5
    22ca:	00005637          	lui	a2,0x5
    22ce:	00004537          	lui	a0,0x4
    22d2:	84060613          	addi	a2,a2,-1984 # 4840 <digitCode+0x15c>
    22d6:	55500593          	li	a1,1365
    22da:	7f450513          	addi	a0,a0,2036 # 47f4 <digitCode+0x110>
    22de:	12e010ef          	jal	ra,340c <iprintf>
    22e2:	a001                	j	22e2 <xQueueReceive+0x5a>
    22e4:	42f000ef          	jal	ra,2f12 <xTaskGetSchedulerState>
    22e8:	e515                	bnez	a0,2314 <xQueueReceive+0x8c>
    22ea:	47b2                	lw	a5,12(sp)
    22ec:	4901                	li	s2,0
    22ee:	c785                	beqz	a5,2316 <xQueueReceive+0x8e>
    22f0:	6789                	lui	a5,0x2
    22f2:	80078793          	addi	a5,a5,-2048 # 1800 <GPIO_Init+0x16>
    22f6:	30079073          	csrw	mstatus,a5
    22fa:	00005637          	lui	a2,0x5
    22fe:	00004537          	lui	a0,0x4
    2302:	84060613          	addi	a2,a2,-1984 # 4840 <digitCode+0x15c>
    2306:	55a00593          	li	a1,1370
    230a:	7f450513          	addi	a0,a0,2036 # 47f4 <digitCode+0x110>
    230e:	0fe010ef          	jal	ra,340c <iprintf>
    2312:	a001                	j	2312 <xQueueReceive+0x8a>
    2314:	4901                	li	s2,0
    2316:	5a7d                	li	s4,-1
    2318:	02440a93          	addi	s5,s0,36
    231c:	e000eb37          	lui	s6,0xe000e
    2320:	6b91                	lui	s7,0x4
    2322:	a0b5                	j	238e <xQueueReceive+0x106>
    2324:	47b2                	lw	a5,12(sp)
    2326:	e789                	bnez	a5,2330 <xQueueReceive+0xa8>
    2328:	cdfff0ef          	jal	ra,2006 <vPortExitCritical>
    232c:	4501                	li	a0,0
    232e:	a841                	j	23be <xQueueReceive+0x136>
    2330:	00091563          	bnez	s2,233a <xQueueReceive+0xb2>
    2334:	0828                	addi	a0,sp,24
    2336:	2f7000ef          	jal	ra,2e2c <vTaskInternalSetTimeOutState>
    233a:	ccdff0ef          	jal	ra,2006 <vPortExitCritical>
    233e:	2b21                	jal	2856 <vTaskSuspendAll>
    2340:	cb1ff0ef          	jal	ra,1ff0 <vPortEnterCritical>
    2344:	04444783          	lbu	a5,68(s0)
    2348:	07e2                	slli	a5,a5,0x18
    234a:	87e1                	srai	a5,a5,0x18
    234c:	01479463          	bne	a5,s4,2354 <xQueueReceive+0xcc>
    2350:	04040223          	sb	zero,68(s0)
    2354:	04544783          	lbu	a5,69(s0)
    2358:	07e2                	slli	a5,a5,0x18
    235a:	87e1                	srai	a5,a5,0x18
    235c:	01479463          	bne	a5,s4,2364 <xQueueReceive+0xdc>
    2360:	040402a3          	sb	zero,69(s0)
    2364:	ca3ff0ef          	jal	ra,2006 <vPortExitCritical>
    2368:	006c                	addi	a1,sp,12
    236a:	0828                	addi	a0,sp,24
    236c:	2d7000ef          	jal	ra,2e42 <xTaskCheckForTimeOut>
    2370:	ed31                	bnez	a0,23cc <xQueueReceive+0x144>
    2372:	8522                	mv	a0,s0
    2374:	3b35                	jal	20b0 <prvIsQueueEmpty>
    2376:	c539                	beqz	a0,23c4 <xQueueReceive+0x13c>
    2378:	45b2                	lw	a1,12(sp)
    237a:	8556                	mv	a0,s5
    237c:	109000ef          	jal	ra,2c84 <vTaskPlaceOnEventList>
    2380:	8522                	mv	a0,s0
    2382:	3b85                	jal	20f2 <prvUnlockQueue>
    2384:	2d61                	jal	2a1c <xTaskResumeAll>
    2386:	e119                	bnez	a0,238c <xQueueReceive+0x104>
    2388:	217b2023          	sw	s7,512(s6) # e000e200 <__freertos_irq_stack_top+0xc0009200>
    238c:	4905                	li	s2,1
    238e:	c63ff0ef          	jal	ra,1ff0 <vPortEnterCritical>
    2392:	5c04                	lw	s1,56(s0)
    2394:	d8c1                	beqz	s1,2324 <xQueueReceive+0x9c>
    2396:	85ce                	mv	a1,s3
    2398:	8522                	mv	a0,s0
    239a:	14fd                	addi	s1,s1,-1
    239c:	333d                	jal	20ca <prvCopyDataFromQueue>
    239e:	dc04                	sw	s1,56(s0)
    23a0:	481c                	lw	a5,16(s0)
    23a2:	cb99                	beqz	a5,23b8 <xQueueReceive+0x130>
    23a4:	01040513          	addi	a0,s0,16
    23a8:	19b000ef          	jal	ra,2d42 <xTaskRemoveFromEventList>
    23ac:	c511                	beqz	a0,23b8 <xQueueReceive+0x130>
    23ae:	e000e7b7          	lui	a5,0xe000e
    23b2:	6711                	lui	a4,0x4
    23b4:	20e7a023          	sw	a4,512(a5) # e000e200 <__freertos_irq_stack_top+0xc0009200>
    23b8:	c4fff0ef          	jal	ra,2006 <vPortExitCritical>
    23bc:	4505                	li	a0,1
    23be:	6105                	addi	sp,sp,32
    23c0:	86efe06f          	j	42e <__riscv_restore_10>
    23c4:	8522                	mv	a0,s0
    23c6:	3335                	jal	20f2 <prvUnlockQueue>
    23c8:	2d91                	jal	2a1c <xTaskResumeAll>
    23ca:	b7c9                	j	238c <xQueueReceive+0x104>
    23cc:	8522                	mv	a0,s0
    23ce:	3315                	jal	20f2 <prvUnlockQueue>
    23d0:	25b1                	jal	2a1c <xTaskResumeAll>
    23d2:	8522                	mv	a0,s0
    23d4:	cddff0ef          	jal	ra,20b0 <prvIsQueueEmpty>
    23d8:	d955                	beqz	a0,238c <xQueueReceive+0x104>
    23da:	bf89                	j	232c <xQueueReceive+0xa4>

000023dc <vQueueAddToRegistry>:
    23dc:	e515                	bnez	a0,2408 <vQueueAddToRegistry+0x2c>
    23de:	840fe2ef          	jal	t0,41e <__riscv_save_0>
    23e2:	6789                	lui	a5,0x2
    23e4:	80078793          	addi	a5,a5,-2048 # 1800 <GPIO_Init+0x16>
    23e8:	30079073          	csrw	mstatus,a5
    23ec:	00005637          	lui	a2,0x5
    23f0:	6585                	lui	a1,0x1
    23f2:	00004537          	lui	a0,0x4
    23f6:	84060613          	addi	a2,a2,-1984 # 4840 <digitCode+0x15c>
    23fa:	ac858593          	addi	a1,a1,-1336 # ac8 <pinMode+0x16e>
    23fe:	7f450513          	addi	a0,a0,2036 # 47f4 <digitCode+0x110>
    2402:	00a010ef          	jal	ra,340c <iprintf>
    2406:	a001                	j	2406 <vQueueAddToRegistry+0x2a>
    2408:	cd9d                	beqz	a1,2446 <vQueueAddToRegistry+0x6a>
    240a:	20003637          	lui	a2,0x20003
    240e:	14c60693          	addi	a3,a2,332 # 2000314c <xQueueRegistry>
    2412:	4781                	li	a5,0
    2414:	4701                	li	a4,0
    2416:	14c60613          	addi	a2,a2,332
    241a:	4821                	li	a6,8
    241c:	0046a883          	lw	a7,4(a3)
    2420:	00a89863          	bne	a7,a0,2430 <vQueueAddToRegistry+0x54>
    2424:	00371793          	slli	a5,a4,0x3
    2428:	97b2                	add	a5,a5,a2
    242a:	c38c                	sw	a1,0(a5)
    242c:	c3c8                	sw	a0,4(a5)
    242e:	a821                	j	2446 <vQueueAddToRegistry+0x6a>
    2430:	e791                	bnez	a5,243c <vQueueAddToRegistry+0x60>
    2432:	0006a883          	lw	a7,0(a3)
    2436:	00089363          	bnez	a7,243c <vQueueAddToRegistry+0x60>
    243a:	87b6                	mv	a5,a3
    243c:	0705                	addi	a4,a4,1
    243e:	06a1                	addi	a3,a3,8
    2440:	fd071ee3          	bne	a4,a6,241c <vQueueAddToRegistry+0x40>
    2444:	f3fd                	bnez	a5,242a <vQueueAddToRegistry+0x4e>
    2446:	8082                	ret

00002448 <vQueueWaitForMessageRestricted>:
    2448:	fd7fd2ef          	jal	t0,41e <__riscv_save_0>
    244c:	1141                	addi	sp,sp,-16
    244e:	842a                	mv	s0,a0
    2450:	c62e                	sw	a1,12(sp)
    2452:	c432                	sw	a2,8(sp)
    2454:	b9dff0ef          	jal	ra,1ff0 <vPortEnterCritical>
    2458:	04444783          	lbu	a5,68(s0)
    245c:	577d                	li	a4,-1
    245e:	4622                	lw	a2,8(sp)
    2460:	07e2                	slli	a5,a5,0x18
    2462:	87e1                	srai	a5,a5,0x18
    2464:	45b2                	lw	a1,12(sp)
    2466:	00e79463          	bne	a5,a4,246e <vQueueWaitForMessageRestricted+0x26>
    246a:	04040223          	sb	zero,68(s0)
    246e:	04544783          	lbu	a5,69(s0)
    2472:	577d                	li	a4,-1
    2474:	07e2                	slli	a5,a5,0x18
    2476:	87e1                	srai	a5,a5,0x18
    2478:	00e79463          	bne	a5,a4,2480 <vQueueWaitForMessageRestricted+0x38>
    247c:	040402a3          	sb	zero,69(s0)
    2480:	c632                	sw	a2,12(sp)
    2482:	c42e                	sw	a1,8(sp)
    2484:	b83ff0ef          	jal	ra,2006 <vPortExitCritical>
    2488:	5c1c                	lw	a5,56(s0)
    248a:	45a2                	lw	a1,8(sp)
    248c:	4632                	lw	a2,12(sp)
    248e:	e789                	bnez	a5,2498 <vQueueWaitForMessageRestricted+0x50>
    2490:	02440513          	addi	a0,s0,36
    2494:	039000ef          	jal	ra,2ccc <vTaskPlaceOnEventListRestricted>
    2498:	8522                	mv	a0,s0
    249a:	c59ff0ef          	jal	ra,20f2 <prvUnlockQueue>
    249e:	0141                	addi	sp,sp,16
    24a0:	fa3fd06f          	j	442 <__riscv_restore_0>

000024a4 <prvResetNextTaskUnblockTime>:
    24a4:	20000737          	lui	a4,0x20000
    24a8:	0f470713          	addi	a4,a4,244 # 200000f4 <pxDelayedTaskList>
    24ac:	431c                	lw	a5,0(a4)
    24ae:	4394                	lw	a3,0(a5)
    24b0:	200007b7          	lui	a5,0x20000
    24b4:	11478793          	addi	a5,a5,276 # 20000114 <xNextTaskUnblockTime>
    24b8:	e681                	bnez	a3,24c0 <prvResetNextTaskUnblockTime+0x1c>
    24ba:	577d                	li	a4,-1
    24bc:	c398                	sw	a4,0(a5)
    24be:	8082                	ret
    24c0:	4318                	lw	a4,0(a4)
    24c2:	4758                	lw	a4,12(a4)
    24c4:	4318                	lw	a4,0(a4)
    24c6:	bfdd                	j	24bc <prvResetNextTaskUnblockTime+0x18>

000024c8 <prvAddCurrentTaskToDelayedList>:
    24c8:	f3dfd2ef          	jal	t0,404 <__riscv_save_4>
    24cc:	20000937          	lui	s2,0x20000
    24d0:	200007b7          	lui	a5,0x20000
    24d4:	0f090493          	addi	s1,s2,240 # 200000f0 <pxCurrentTCB>
    24d8:	1247a983          	lw	s3,292(a5) # 20000124 <xTickCount>
    24dc:	842a                	mv	s0,a0
    24de:	409c                	lw	a5,0(s1)
    24e0:	4088                	lw	a0,0(s1)
    24e2:	1141                	addi	sp,sp,-16
    24e4:	040788a3          	sb	zero,81(a5)
    24e8:	0511                	addi	a0,a0,4
    24ea:	c62e                	sw	a1,12(sp)
    24ec:	ba5ff0ef          	jal	ra,2090 <uxListRemove>
    24f0:	577d                	li	a4,-1
    24f2:	0f090793          	addi	a5,s2,240
    24f6:	45b2                	lw	a1,12(sp)
    24f8:	02e41c63          	bne	s0,a4,2530 <prvAddCurrentTaskToDelayedList+0x68>
    24fc:	c995                	beqz	a1,2530 <prvAddCurrentTaskToDelayedList+0x68>
    24fe:	200037b7          	lui	a5,0x20003
    2502:	2f478793          	addi	a5,a5,756 # 200032f4 <xSuspendedTaskList>
    2506:	4094                	lw	a3,0(s1)
    2508:	43d8                	lw	a4,4(a5)
    250a:	c698                	sw	a4,8(a3)
    250c:	4710                	lw	a2,8(a4)
    250e:	4094                	lw	a3,0(s1)
    2510:	c6d0                	sw	a2,12(a3)
    2512:	4094                	lw	a3,0(s1)
    2514:	4710                	lw	a2,8(a4)
    2516:	0691                	addi	a3,a3,4
    2518:	c254                	sw	a3,4(a2)
    251a:	4094                	lw	a3,0(s1)
    251c:	0691                	addi	a3,a3,4
    251e:	c714                	sw	a3,8(a4)
    2520:	4098                	lw	a4,0(s1)
    2522:	cb5c                	sw	a5,20(a4)
    2524:	4398                	lw	a4,0(a5)
    2526:	0705                	addi	a4,a4,1
    2528:	c398                	sw	a4,0(a5)
    252a:	0141                	addi	sp,sp,16
    252c:	f0dfd06f          	j	438 <__riscv_restore_4>
    2530:	4398                	lw	a4,0(a5)
    2532:	944e                	add	s0,s0,s3
    2534:	c340                	sw	s0,4(a4)
    2536:	01347b63          	bgeu	s0,s3,254c <prvAddCurrentTaskToDelayedList+0x84>
    253a:	20000737          	lui	a4,0x20000
    253e:	0f872503          	lw	a0,248(a4) # 200000f8 <pxOverflowDelayedTaskList>
    2542:	438c                	lw	a1,0(a5)
    2544:	0591                	addi	a1,a1,4
    2546:	b1dff0ef          	jal	ra,2062 <vListInsert>
    254a:	b7c5                	j	252a <prvAddCurrentTaskToDelayedList+0x62>
    254c:	20000737          	lui	a4,0x20000
    2550:	0f472503          	lw	a0,244(a4) # 200000f4 <pxDelayedTaskList>
    2554:	438c                	lw	a1,0(a5)
    2556:	0591                	addi	a1,a1,4
    2558:	b0bff0ef          	jal	ra,2062 <vListInsert>
    255c:	200007b7          	lui	a5,0x20000
    2560:	11478793          	addi	a5,a5,276 # 20000114 <xNextTaskUnblockTime>
    2564:	4398                	lw	a4,0(a5)
    2566:	fce472e3          	bgeu	s0,a4,252a <prvAddCurrentTaskToDelayedList+0x62>
    256a:	c380                	sw	s0,0(a5)
    256c:	bf7d                	j	252a <prvAddCurrentTaskToDelayedList+0x62>

0000256e <prvIdleTask>:
    256e:	e97fd2ef          	jal	t0,404 <__riscv_save_4>
    2572:	20003437          	lui	s0,0x20003
    2576:	200009b7          	lui	s3,0x20000
    257a:	30840413          	addi	s0,s0,776 # 20003308 <xTasksWaitingTermination>
    257e:	20000a37          	lui	s4,0x20000
    2582:	10098493          	addi	s1,s3,256 # 20000100 <uxDeletedTasksWaitingCleanUp>
    2586:	409c                	lw	a5,0(s1)
    2588:	dfed                	beqz	a5,2582 <prvIdleTask+0x14>
    258a:	a67ff0ef          	jal	ra,1ff0 <vPortEnterCritical>
    258e:	445c                	lw	a5,12(s0)
    2590:	00c7a903          	lw	s2,12(a5)
    2594:	00490513          	addi	a0,s2,4
    2598:	af9ff0ef          	jal	ra,2090 <uxListRemove>
    259c:	0fca0713          	addi	a4,s4,252 # 200000fc <uxCurrentNumberOfTasks>
    25a0:	431c                	lw	a5,0(a4)
    25a2:	17fd                	addi	a5,a5,-1
    25a4:	c31c                	sw	a5,0(a4)
    25a6:	409c                	lw	a5,0(s1)
    25a8:	17fd                	addi	a5,a5,-1
    25aa:	c09c                	sw	a5,0(s1)
    25ac:	a5bff0ef          	jal	ra,2006 <vPortExitCritical>
    25b0:	03092503          	lw	a0,48(s2)
    25b4:	84fff0ef          	jal	ra,1e02 <vPortFree>
    25b8:	854a                	mv	a0,s2
    25ba:	849ff0ef          	jal	ra,1e02 <vPortFree>
    25be:	b7d1                	j	2582 <prvIdleTask+0x14>

000025c0 <xTaskCreate>:
    25c0:	e37fd2ef          	jal	t0,3f6 <__riscv_save_10>
    25c4:	00261913          	slli	s2,a2,0x2
    25c8:	8aaa                	mv	s5,a0
    25ca:	854a                	mv	a0,s2
    25cc:	8a2e                	mv	s4,a1
    25ce:	8b36                	mv	s6,a3
    25d0:	8bba                	mv	s7,a4
    25d2:	89be                	mv	s3,a5
    25d4:	ea4ff0ef          	jal	ra,1c78 <pvPortMalloc>
    25d8:	c11d                	beqz	a0,25fe <xTaskCreate+0x3e>
    25da:	84aa                	mv	s1,a0
    25dc:	05400513          	li	a0,84
    25e0:	e98ff0ef          	jal	ra,1c78 <pvPortMalloc>
    25e4:	842a                	mv	s0,a0
    25e6:	c909                	beqz	a0,25f8 <xTaskCreate+0x38>
    25e8:	d904                	sw	s1,48(a0)
    25ea:	4781                	li	a5,0
    25ec:	46c1                	li	a3,16
    25ee:	000a1a63          	bnez	s4,2602 <xTaskCreate+0x42>
    25f2:	02050a23          	sb	zero,52(a0)
    25f6:	a025                	j	261e <xTaskCreate+0x5e>
    25f8:	8526                	mv	a0,s1
    25fa:	809ff0ef          	jal	ra,1e02 <vPortFree>
    25fe:	557d                	li	a0,-1
    2600:	a265                	j	27a8 <xTaskCreate+0x1e8>
    2602:	00fa0733          	add	a4,s4,a5
    2606:	00070703          	lb	a4,0(a4)
    260a:	00f40633          	add	a2,s0,a5
    260e:	02e60a23          	sb	a4,52(a2)
    2612:	c701                	beqz	a4,261a <xTaskCreate+0x5a>
    2614:	0785                	addi	a5,a5,1
    2616:	fed796e3          	bne	a5,a3,2602 <xTaskCreate+0x42>
    261a:	040401a3          	sb	zero,67(s0)
    261e:	47b9                	li	a5,14
    2620:	0377f463          	bgeu	a5,s7,2648 <xTaskCreate+0x88>
    2624:	6789                	lui	a5,0x2
    2626:	80078793          	addi	a5,a5,-2048 # 1800 <GPIO_Init+0x16>
    262a:	30079073          	csrw	mstatus,a5
    262e:	00005637          	lui	a2,0x5
    2632:	00004537          	lui	a0,0x4
    2636:	85460613          	addi	a2,a2,-1964 # 4854 <digitCode+0x170>
    263a:	39900593          	li	a1,921
    263e:	7f450513          	addi	a0,a0,2036 # 47f4 <digitCode+0x110>
    2642:	5cb000ef          	jal	ra,340c <iprintf>
    2646:	a001                	j	2646 <xTaskCreate+0x86>
    2648:	00440a13          	addi	s4,s0,4
    264c:	8552                	mv	a0,s4
    264e:	03742623          	sw	s7,44(s0)
    2652:	05742223          	sw	s7,68(s0)
    2656:	04042423          	sw	zero,72(s0)
    265a:	a03ff0ef          	jal	ra,205c <vListInitialiseItem>
    265e:	01840513          	addi	a0,s0,24
    2662:	9fbff0ef          	jal	ra,205c <vListInitialiseItem>
    2666:	473d                	li	a4,15
    2668:	ffc90513          	addi	a0,s2,-4
    266c:	41770733          	sub	a4,a4,s7
    2670:	9526                	add	a0,a0,s1
    2672:	c800                	sw	s0,16(s0)
    2674:	cc18                	sw	a4,24(s0)
    2676:	d040                	sw	s0,36(s0)
    2678:	04040623          	sb	zero,76(s0)
    267c:	040406a3          	sb	zero,77(s0)
    2680:	04040723          	sb	zero,78(s0)
    2684:	040407a3          	sb	zero,79(s0)
    2688:	04040823          	sb	zero,80(s0)
    268c:	040408a3          	sb	zero,81(s0)
    2690:	865a                	mv	a2,s6
    2692:	85d6                	mv	a1,s5
    2694:	9941                	andi	a0,a0,-16
    2696:	c6bfd0ef          	jal	ra,300 <pxPortInitialiseStack>
    269a:	c008                	sw	a0,0(s0)
    269c:	00098463          	beqz	s3,26a4 <xTaskCreate+0xe4>
    26a0:	0089a023          	sw	s0,0(s3)
    26a4:	94dff0ef          	jal	ra,1ff0 <vPortEnterCritical>
    26a8:	200007b7          	lui	a5,0x20000
    26ac:	0fc78793          	addi	a5,a5,252 # 200000fc <uxCurrentNumberOfTasks>
    26b0:	4398                	lw	a4,0(a5)
    26b2:	200004b7          	lui	s1,0x20000
    26b6:	200039b7          	lui	s3,0x20003
    26ba:	0705                	addi	a4,a4,1
    26bc:	c398                	sw	a4,0(a5)
    26be:	0f048713          	addi	a4,s1,240 # 200000f0 <pxCurrentTCB>
    26c2:	4318                	lw	a4,0(a4)
    26c4:	0f048493          	addi	s1,s1,240
    26c8:	18c98913          	addi	s2,s3,396 # 2000318c <pxReadyTasksLists>
    26cc:	0e071063          	bnez	a4,27ac <xTaskCreate+0x1ec>
    26d0:	c080                	sw	s0,0(s1)
    26d2:	4398                	lw	a4,0(a5)
    26d4:	4785                	li	a5,1
    26d6:	06f71663          	bne	a4,a5,2742 <xTaskCreate+0x182>
    26da:	18c98993          	addi	s3,s3,396
    26de:	12c90a93          	addi	s5,s2,300
    26e2:	854e                	mv	a0,s3
    26e4:	09d1                	addi	s3,s3,20
    26e6:	963ff0ef          	jal	ra,2048 <vListInitialise>
    26ea:	ff3a9ce3          	bne	s5,s3,26e2 <xTaskCreate+0x122>
    26ee:	20003537          	lui	a0,0x20003
    26f2:	2b850a93          	addi	s5,a0,696 # 200032b8 <xDelayedTaskList1>
    26f6:	2b850513          	addi	a0,a0,696
    26fa:	94fff0ef          	jal	ra,2048 <vListInitialise>
    26fe:	20003537          	lui	a0,0x20003
    2702:	2cc50993          	addi	s3,a0,716 # 200032cc <xDelayedTaskList2>
    2706:	2cc50513          	addi	a0,a0,716
    270a:	93fff0ef          	jal	ra,2048 <vListInitialise>
    270e:	20003537          	lui	a0,0x20003
    2712:	2e050513          	addi	a0,a0,736 # 200032e0 <xPendingReadyList>
    2716:	933ff0ef          	jal	ra,2048 <vListInitialise>
    271a:	20003537          	lui	a0,0x20003
    271e:	30850513          	addi	a0,a0,776 # 20003308 <xTasksWaitingTermination>
    2722:	927ff0ef          	jal	ra,2048 <vListInitialise>
    2726:	20003537          	lui	a0,0x20003
    272a:	2f450513          	addi	a0,a0,756 # 200032f4 <xSuspendedTaskList>
    272e:	91bff0ef          	jal	ra,2048 <vListInitialise>
    2732:	200007b7          	lui	a5,0x20000
    2736:	0f57aa23          	sw	s5,244(a5) # 200000f4 <pxDelayedTaskList>
    273a:	200007b7          	lui	a5,0x20000
    273e:	0f37ac23          	sw	s3,248(a5) # 200000f8 <pxOverflowDelayedTaskList>
    2742:	200007b7          	lui	a5,0x20000
    2746:	10878793          	addi	a5,a5,264 # 20000108 <uxTaskNumber>
    274a:	4398                	lw	a4,0(a5)
    274c:	0705                	addi	a4,a4,1
    274e:	c398                	sw	a4,0(a5)
    2750:	20000737          	lui	a4,0x20000
    2754:	10c70713          	addi	a4,a4,268 # 2000010c <uxTopReadyPriority>
    2758:	545c                	lw	a5,44(s0)
    275a:	4314                	lw	a3,0(a4)
    275c:	00f6f363          	bgeu	a3,a5,2762 <xTaskCreate+0x1a2>
    2760:	c31c                	sw	a5,0(a4)
    2762:	4751                	li	a4,20
    2764:	02e787b3          	mul	a5,a5,a4
    2768:	97ca                	add	a5,a5,s2
    276a:	43d8                	lw	a4,4(a5)
    276c:	4714                	lw	a3,8(a4)
    276e:	c418                	sw	a4,8(s0)
    2770:	c454                	sw	a3,12(s0)
    2772:	4714                	lw	a3,8(a4)
    2774:	0146a223          	sw	s4,4(a3)
    2778:	01472423          	sw	s4,8(a4)
    277c:	4398                	lw	a4,0(a5)
    277e:	c85c                	sw	a5,20(s0)
    2780:	0705                	addi	a4,a4,1
    2782:	c398                	sw	a4,0(a5)
    2784:	883ff0ef          	jal	ra,2006 <vPortExitCritical>
    2788:	200007b7          	lui	a5,0x20000
    278c:	1207a783          	lw	a5,288(a5) # 20000120 <xSchedulerRunning>
    2790:	4505                	li	a0,1
    2792:	cb99                	beqz	a5,27a8 <xTaskCreate+0x1e8>
    2794:	409c                	lw	a5,0(s1)
    2796:	57d8                	lw	a4,44(a5)
    2798:	545c                	lw	a5,44(s0)
    279a:	00f77763          	bgeu	a4,a5,27a8 <xTaskCreate+0x1e8>
    279e:	e000e7b7          	lui	a5,0xe000e
    27a2:	6711                	lui	a4,0x4
    27a4:	20e7a023          	sw	a4,512(a5) # e000e200 <__freertos_irq_stack_top+0xc0009200>
    27a8:	c87fd06f          	j	42e <__riscv_restore_10>
    27ac:	200007b7          	lui	a5,0x20000
    27b0:	1207a783          	lw	a5,288(a5) # 20000120 <xSchedulerRunning>
    27b4:	f7d9                	bnez	a5,2742 <xTaskCreate+0x182>
    27b6:	409c                	lw	a5,0(s1)
    27b8:	57d8                	lw	a4,44(a5)
    27ba:	545c                	lw	a5,44(s0)
    27bc:	f8e7e3e3          	bltu	a5,a4,2742 <xTaskCreate+0x182>
    27c0:	c080                	sw	s0,0(s1)
    27c2:	b741                	j	2742 <xTaskCreate+0x182>

000027c4 <vTaskStartScheduler>:
    27c4:	c5bfd2ef          	jal	t0,41e <__riscv_save_0>
    27c8:	200007b7          	lui	a5,0x20000
    27cc:	000055b7          	lui	a1,0x5
    27d0:	00002537          	lui	a0,0x2
    27d4:	11078793          	addi	a5,a5,272 # 20000110 <xIdleTaskHandle>
    27d8:	4701                	li	a4,0
    27da:	4681                	li	a3,0
    27dc:	10000613          	li	a2,256
    27e0:	86858593          	addi	a1,a1,-1944 # 4868 <digitCode+0x184>
    27e4:	56e50513          	addi	a0,a0,1390 # 256e <prvIdleTask>
    27e8:	dd9ff0ef          	jal	ra,25c0 <xTaskCreate>
    27ec:	4405                	li	s0,1
    27ee:	02851e63          	bne	a0,s0,282a <vTaskStartScheduler+0x66>
    27f2:	217000ef          	jal	ra,3208 <xTimerCreateTimerTask>
    27f6:	02851a63          	bne	a0,s0,282a <vTaskStartScheduler+0x66>
    27fa:	6789                	lui	a5,0x2
    27fc:	80078793          	addi	a5,a5,-2048 # 1800 <GPIO_Init+0x16>
    2800:	30079073          	csrw	mstatus,a5
    2804:	200007b7          	lui	a5,0x20000
    2808:	577d                	li	a4,-1
    280a:	10e7aa23          	sw	a4,276(a5) # 20000114 <xNextTaskUnblockTime>
    280e:	200007b7          	lui	a5,0x20000
    2812:	12a7a023          	sw	a0,288(a5) # 20000120 <xSchedulerRunning>
    2816:	200007b7          	lui	a5,0x20000
    281a:	1207a223          	sw	zero,292(a5) # 20000124 <xTickCount>
    281e:	ec8ff0ef          	jal	ra,1ee6 <xPortStartScheduler>
    2822:	8141a783          	lw	a5,-2028(gp) # 20000084 <uxTopUsedPriority>
    2826:	c1dfd06f          	j	442 <__riscv_restore_0>
    282a:	57fd                	li	a5,-1
    282c:	fef51be3          	bne	a0,a5,2822 <vTaskStartScheduler+0x5e>
    2830:	6789                	lui	a5,0x2
    2832:	80078793          	addi	a5,a5,-2048 # 1800 <GPIO_Init+0x16>
    2836:	30079073          	csrw	mstatus,a5
    283a:	00005637          	lui	a2,0x5
    283e:	6585                	lui	a1,0x1
    2840:	00004537          	lui	a0,0x4
    2844:	85460613          	addi	a2,a2,-1964 # 4854 <digitCode+0x170>
    2848:	84258593          	addi	a1,a1,-1982 # 842 <__stack_size+0x42>
    284c:	7f450513          	addi	a0,a0,2036 # 47f4 <digitCode+0x110>
    2850:	3bd000ef          	jal	ra,340c <iprintf>
    2854:	a001                	j	2854 <vTaskStartScheduler+0x90>

00002856 <vTaskSuspendAll>:
    2856:	200007b7          	lui	a5,0x20000
    285a:	10478793          	addi	a5,a5,260 # 20000104 <uxSchedulerSuspended>
    285e:	4398                	lw	a4,0(a5)
    2860:	0705                	addi	a4,a4,1
    2862:	c398                	sw	a4,0(a5)
    2864:	8082                	ret

00002866 <xTaskGetTickCount>:
    2866:	200007b7          	lui	a5,0x20000
    286a:	1247a503          	lw	a0,292(a5) # 20000124 <xTickCount>
    286e:	8082                	ret

00002870 <xTaskIncrementTick>:
    2870:	200007b7          	lui	a5,0x20000
    2874:	1047a783          	lw	a5,260(a5) # 20000104 <uxSchedulerSuspended>
    2878:	18079963          	bnez	a5,2a0a <xTaskIncrementTick+0x19a>
    287c:	ba3fd2ef          	jal	t0,41e <__riscv_save_0>
    2880:	200007b7          	lui	a5,0x20000
    2884:	12478793          	addi	a5,a5,292 # 20000124 <xTickCount>
    2888:	4380                	lw	s0,0(a5)
    288a:	0405                	addi	s0,s0,1
    288c:	c380                	sw	s0,0(a5)
    288e:	ec21                	bnez	s0,28e6 <xTaskIncrementTick+0x76>
    2890:	200007b7          	lui	a5,0x20000
    2894:	0f478793          	addi	a5,a5,244 # 200000f4 <pxDelayedTaskList>
    2898:	4398                	lw	a4,0(a5)
    289a:	4318                	lw	a4,0(a4)
    289c:	c705                	beqz	a4,28c4 <xTaskIncrementTick+0x54>
    289e:	6789                	lui	a5,0x2
    28a0:	80078793          	addi	a5,a5,-2048 # 1800 <GPIO_Init+0x16>
    28a4:	30079073          	csrw	mstatus,a5
    28a8:	00005637          	lui	a2,0x5
    28ac:	6585                	lui	a1,0x1
    28ae:	00004537          	lui	a0,0x4
    28b2:	85460613          	addi	a2,a2,-1964 # 4854 <digitCode+0x170>
    28b6:	ac958593          	addi	a1,a1,-1335 # ac9 <pinMode+0x16f>
    28ba:	7f450513          	addi	a0,a0,2036 # 47f4 <digitCode+0x110>
    28be:	34f000ef          	jal	ra,340c <iprintf>
    28c2:	a001                	j	28c2 <xTaskIncrementTick+0x52>
    28c4:	20000737          	lui	a4,0x20000
    28c8:	0f870713          	addi	a4,a4,248 # 200000f8 <pxOverflowDelayedTaskList>
    28cc:	4394                	lw	a3,0(a5)
    28ce:	4310                	lw	a2,0(a4)
    28d0:	c390                	sw	a2,0(a5)
    28d2:	200007b7          	lui	a5,0x20000
    28d6:	c314                	sw	a3,0(a4)
    28d8:	11878793          	addi	a5,a5,280 # 20000118 <xNumOfOverflows>
    28dc:	4398                	lw	a4,0(a5)
    28de:	0705                	addi	a4,a4,1
    28e0:	c398                	sw	a4,0(a5)
    28e2:	bc3ff0ef          	jal	ra,24a4 <prvResetNextTaskUnblockTime>
    28e6:	20000637          	lui	a2,0x20000
    28ea:	11460793          	addi	a5,a2,276 # 20000114 <xNextTaskUnblockTime>
    28ee:	439c                	lw	a5,0(a5)
    28f0:	20003737          	lui	a4,0x20003
    28f4:	200005b7          	lui	a1,0x20000
    28f8:	11460613          	addi	a2,a2,276
    28fc:	18c70713          	addi	a4,a4,396 # 2000318c <pxReadyTasksLists>
    2900:	0f058593          	addi	a1,a1,240 # 200000f0 <pxCurrentTCB>
    2904:	4501                	li	a0,0
    2906:	02f47563          	bgeu	s0,a5,2930 <xTaskIncrementTick+0xc0>
    290a:	419c                	lw	a5,0(a1)
    290c:	46d1                	li	a3,20
    290e:	57dc                	lw	a5,44(a5)
    2910:	02d787b3          	mul	a5,a5,a3
    2914:	973e                	add	a4,a4,a5
    2916:	4318                	lw	a4,0(a4)
    2918:	4785                	li	a5,1
    291a:	00e7f363          	bgeu	a5,a4,2920 <xTaskIncrementTick+0xb0>
    291e:	4505                	li	a0,1
    2920:	200007b7          	lui	a5,0x20000
    2924:	1287a783          	lw	a5,296(a5) # 20000128 <xYieldPending>
    2928:	c391                	beqz	a5,292c <xTaskIncrementTick+0xbc>
    292a:	4505                	li	a0,1
    292c:	b17fd06f          	j	442 <__riscv_restore_0>
    2930:	20000e37          	lui	t3,0x20000
    2934:	20000eb7          	lui	t4,0x20000
    2938:	4f51                	li	t5,20
    293a:	0f4e0793          	addi	a5,t3,244 # 200000f4 <pxDelayedTaskList>
    293e:	4394                	lw	a3,0(a5)
    2940:	4294                	lw	a3,0(a3)
    2942:	e681                	bnez	a3,294a <xTaskIncrementTick+0xda>
    2944:	57fd                	li	a5,-1
    2946:	c21c                	sw	a5,0(a2)
    2948:	b7c9                	j	290a <xTaskIncrementTick+0x9a>
    294a:	439c                	lw	a5,0(a5)
    294c:	47dc                	lw	a5,12(a5)
    294e:	47dc                	lw	a5,12(a5)
    2950:	43d4                	lw	a3,4(a5)
    2952:	00d47463          	bgeu	s0,a3,295a <xTaskIncrementTick+0xea>
    2956:	c214                	sw	a3,0(a2)
    2958:	bf4d                	j	290a <xTaskIncrementTick+0x9a>
    295a:	0087a883          	lw	a7,8(a5)
    295e:	00c7a803          	lw	a6,12(a5)
    2962:	4bd4                	lw	a3,20(a5)
    2964:	00478313          	addi	t1,a5,4
    2968:	0108a423          	sw	a6,8(a7)
    296c:	01182223          	sw	a7,4(a6)
    2970:	0046a883          	lw	a7,4(a3)
    2974:	00689463          	bne	a7,t1,297c <xTaskIncrementTick+0x10c>
    2978:	0106a223          	sw	a6,4(a3)
    297c:	0006a803          	lw	a6,0(a3)
    2980:	0007aa23          	sw	zero,20(a5)
    2984:	187d                	addi	a6,a6,-1
    2986:	0106a023          	sw	a6,0(a3)
    298a:	5794                	lw	a3,40(a5)
    298c:	ca95                	beqz	a3,29c0 <xTaskIncrementTick+0x150>
    298e:	01c7a803          	lw	a6,28(a5)
    2992:	0207a883          	lw	a7,32(a5)
    2996:	0046af83          	lw	t6,4(a3)
    299a:	01182423          	sw	a7,8(a6)
    299e:	0207a883          	lw	a7,32(a5)
    29a2:	0108a223          	sw	a6,4(a7)
    29a6:	01878813          	addi	a6,a5,24
    29aa:	010f9463          	bne	t6,a6,29b2 <xTaskIncrementTick+0x142>
    29ae:	0116a223          	sw	a7,4(a3)
    29b2:	0006a803          	lw	a6,0(a3)
    29b6:	0207a423          	sw	zero,40(a5)
    29ba:	187d                	addi	a6,a6,-1
    29bc:	0106a023          	sw	a6,0(a3)
    29c0:	10ce8693          	addi	a3,t4,268 # 2000010c <uxTopReadyPriority>
    29c4:	02c7a803          	lw	a6,44(a5)
    29c8:	0006a883          	lw	a7,0(a3)
    29cc:	0108f463          	bgeu	a7,a6,29d4 <xTaskIncrementTick+0x164>
    29d0:	0106a023          	sw	a6,0(a3)
    29d4:	03e806b3          	mul	a3,a6,t5
    29d8:	96ba                	add	a3,a3,a4
    29da:	0046a883          	lw	a7,4(a3)
    29de:	0088af83          	lw	t6,8(a7)
    29e2:	0117a423          	sw	a7,8(a5)
    29e6:	01f7a623          	sw	t6,12(a5)
    29ea:	0088af83          	lw	t6,8(a7)
    29ee:	006fa223          	sw	t1,4(t6)
    29f2:	0068a423          	sw	t1,8(a7)
    29f6:	cbd4                	sw	a3,20(a5)
    29f8:	429c                	lw	a5,0(a3)
    29fa:	0785                	addi	a5,a5,1
    29fc:	c29c                	sw	a5,0(a3)
    29fe:	419c                	lw	a5,0(a1)
    2a00:	57dc                	lw	a5,44(a5)
    2a02:	f2f86ce3          	bltu	a6,a5,293a <xTaskIncrementTick+0xca>
    2a06:	4505                	li	a0,1
    2a08:	bf0d                	j	293a <xTaskIncrementTick+0xca>
    2a0a:	200007b7          	lui	a5,0x20000
    2a0e:	11c78793          	addi	a5,a5,284 # 2000011c <xPendedTicks>
    2a12:	4398                	lw	a4,0(a5)
    2a14:	4501                	li	a0,0
    2a16:	0705                	addi	a4,a4,1
    2a18:	c398                	sw	a4,0(a5)
    2a1a:	8082                	ret

00002a1c <xTaskResumeAll>:
    2a1c:	9e9fd2ef          	jal	t0,404 <__riscv_save_4>
    2a20:	20000437          	lui	s0,0x20000
    2a24:	10440413          	addi	s0,s0,260 # 20000104 <uxSchedulerSuspended>
    2a28:	401c                	lw	a5,0(s0)
    2a2a:	1141                	addi	sp,sp,-16
    2a2c:	e785                	bnez	a5,2a54 <xTaskResumeAll+0x38>
    2a2e:	6789                	lui	a5,0x2
    2a30:	80078793          	addi	a5,a5,-2048 # 1800 <GPIO_Init+0x16>
    2a34:	30079073          	csrw	mstatus,a5
    2a38:	00005637          	lui	a2,0x5
    2a3c:	6585                	lui	a1,0x1
    2a3e:	00004537          	lui	a0,0x4
    2a42:	85460613          	addi	a2,a2,-1964 # 4854 <digitCode+0x170>
    2a46:	8b558593          	addi	a1,a1,-1867 # 8b5 <__stack_size+0xb5>
    2a4a:	7f450513          	addi	a0,a0,2036 # 47f4 <digitCode+0x110>
    2a4e:	1bf000ef          	jal	ra,340c <iprintf>
    2a52:	a001                	j	2a52 <xTaskResumeAll+0x36>
    2a54:	d9cff0ef          	jal	ra,1ff0 <vPortEnterCritical>
    2a58:	401c                	lw	a5,0(s0)
    2a5a:	17fd                	addi	a5,a5,-1
    2a5c:	c01c                	sw	a5,0(s0)
    2a5e:	401c                	lw	a5,0(s0)
    2a60:	cb89                	beqz	a5,2a72 <xTaskResumeAll+0x56>
    2a62:	4501                	li	a0,0
    2a64:	c62a                	sw	a0,12(sp)
    2a66:	da0ff0ef          	jal	ra,2006 <vPortExitCritical>
    2a6a:	4532                	lw	a0,12(sp)
    2a6c:	0141                	addi	sp,sp,16
    2a6e:	9cbfd06f          	j	438 <__riscv_restore_4>
    2a72:	200007b7          	lui	a5,0x20000
    2a76:	0fc7a783          	lw	a5,252(a5) # 200000fc <uxCurrentNumberOfTasks>
    2a7a:	d7e5                	beqz	a5,2a62 <xTaskResumeAll+0x46>
    2a7c:	200036b7          	lui	a3,0x20003
    2a80:	20003537          	lui	a0,0x20003
    2a84:	4781                	li	a5,0
    2a86:	2e068693          	addi	a3,a3,736 # 200032e0 <xPendingReadyList>
    2a8a:	20000f37          	lui	t5,0x20000
    2a8e:	18c50513          	addi	a0,a0,396 # 2000318c <pxReadyTasksLists>
    2a92:	48d1                	li	a7,20
    2a94:	20000337          	lui	t1,0x20000
    2a98:	20000e37          	lui	t3,0x20000
    2a9c:	4e85                	li	t4,1
    2a9e:	a859                	j	2b34 <xTaskResumeAll+0x118>
    2aa0:	46dc                	lw	a5,12(a3)
    2aa2:	47dc                	lw	a5,12(a5)
    2aa4:	4fcc                	lw	a1,28(a5)
    2aa6:	5390                	lw	a2,32(a5)
    2aa8:	5798                	lw	a4,40(a5)
    2aaa:	c590                	sw	a2,8(a1)
    2aac:	0207a803          	lw	a6,32(a5)
    2ab0:	00b82223          	sw	a1,4(a6)
    2ab4:	00472803          	lw	a6,4(a4)
    2ab8:	01878593          	addi	a1,a5,24
    2abc:	00b81363          	bne	a6,a1,2ac2 <xTaskResumeAll+0xa6>
    2ac0:	c350                	sw	a2,4(a4)
    2ac2:	4310                	lw	a2,0(a4)
    2ac4:	0207a423          	sw	zero,40(a5)
    2ac8:	167d                	addi	a2,a2,-1
    2aca:	c310                	sw	a2,0(a4)
    2acc:	478c                	lw	a1,8(a5)
    2ace:	47d0                	lw	a2,12(a5)
    2ad0:	4bd8                	lw	a4,20(a5)
    2ad2:	00478813          	addi	a6,a5,4
    2ad6:	c590                	sw	a2,8(a1)
    2ad8:	c24c                	sw	a1,4(a2)
    2ada:	434c                	lw	a1,4(a4)
    2adc:	01059363          	bne	a1,a6,2ae2 <xTaskResumeAll+0xc6>
    2ae0:	c350                	sw	a2,4(a4)
    2ae2:	4310                	lw	a2,0(a4)
    2ae4:	0007aa23          	sw	zero,20(a5)
    2ae8:	167d                	addi	a2,a2,-1
    2aea:	c310                	sw	a2,0(a4)
    2aec:	10cf0713          	addi	a4,t5,268 # 2000010c <uxTopReadyPriority>
    2af0:	57d0                	lw	a2,44(a5)
    2af2:	430c                	lw	a1,0(a4)
    2af4:	00c5f363          	bgeu	a1,a2,2afa <xTaskResumeAll+0xde>
    2af8:	c310                	sw	a2,0(a4)
    2afa:	03160733          	mul	a4,a2,a7
    2afe:	972a                	add	a4,a4,a0
    2b00:	434c                	lw	a1,4(a4)
    2b02:	0085af83          	lw	t6,8(a1)
    2b06:	c78c                	sw	a1,8(a5)
    2b08:	01f7a623          	sw	t6,12(a5)
    2b0c:	0085af83          	lw	t6,8(a1)
    2b10:	010fa223          	sw	a6,4(t6)
    2b14:	0105a423          	sw	a6,8(a1)
    2b18:	430c                	lw	a1,0(a4)
    2b1a:	cbd8                	sw	a4,20(a5)
    2b1c:	0585                	addi	a1,a1,1
    2b1e:	c30c                	sw	a1,0(a4)
    2b20:	0f030713          	addi	a4,t1,240 # 200000f0 <pxCurrentTCB>
    2b24:	4318                	lw	a4,0(a4)
    2b26:	5758                	lw	a4,44(a4)
    2b28:	00e66663          	bltu	a2,a4,2b34 <xTaskResumeAll+0x118>
    2b2c:	128e0713          	addi	a4,t3,296 # 20000128 <xYieldPending>
    2b30:	01d72023          	sw	t4,0(a4)
    2b34:	4298                	lw	a4,0(a3)
    2b36:	f72d                	bnez	a4,2aa0 <xTaskResumeAll+0x84>
    2b38:	c399                	beqz	a5,2b3e <xTaskResumeAll+0x122>
    2b3a:	96bff0ef          	jal	ra,24a4 <prvResetNextTaskUnblockTime>
    2b3e:	200007b7          	lui	a5,0x20000
    2b42:	11c78713          	addi	a4,a5,284 # 2000011c <xPendedTicks>
    2b46:	4304                	lw	s1,0(a4)
    2b48:	11c78413          	addi	s0,a5,284
    2b4c:	cc99                	beqz	s1,2b6a <xTaskResumeAll+0x14e>
    2b4e:	20000937          	lui	s2,0x20000
    2b52:	4985                	li	s3,1
    2b54:	d1dff0ef          	jal	ra,2870 <xTaskIncrementTick>
    2b58:	c509                	beqz	a0,2b62 <xTaskResumeAll+0x146>
    2b5a:	12890793          	addi	a5,s2,296 # 20000128 <xYieldPending>
    2b5e:	0137a023          	sw	s3,0(a5)
    2b62:	14fd                	addi	s1,s1,-1
    2b64:	f8e5                	bnez	s1,2b54 <xTaskResumeAll+0x138>
    2b66:	00042023          	sw	zero,0(s0)
    2b6a:	200007b7          	lui	a5,0x20000
    2b6e:	1287a783          	lw	a5,296(a5) # 20000128 <xYieldPending>
    2b72:	ee0788e3          	beqz	a5,2a62 <xTaskResumeAll+0x46>
    2b76:	e000e7b7          	lui	a5,0xe000e
    2b7a:	6711                	lui	a4,0x4
    2b7c:	20e7a023          	sw	a4,512(a5) # e000e200 <__freertos_irq_stack_top+0xc0009200>
    2b80:	4505                	li	a0,1
    2b82:	b5cd                	j	2a64 <xTaskResumeAll+0x48>

00002b84 <vTaskDelay>:
    2b84:	e519                	bnez	a0,2b92 <vTaskDelay+0xe>
    2b86:	e000e7b7          	lui	a5,0xe000e
    2b8a:	6711                	lui	a4,0x4
    2b8c:	20e7a023          	sw	a4,512(a5) # e000e200 <__freertos_irq_stack_top+0xc0009200>
    2b90:	8082                	ret
    2b92:	88dfd2ef          	jal	t0,41e <__riscv_save_0>
    2b96:	200007b7          	lui	a5,0x20000
    2b9a:	1047a783          	lw	a5,260(a5) # 20000104 <uxSchedulerSuspended>
    2b9e:	1141                	addi	sp,sp,-16
    2ba0:	c39d                	beqz	a5,2bc6 <vTaskDelay+0x42>
    2ba2:	6789                	lui	a5,0x2
    2ba4:	80078793          	addi	a5,a5,-2048 # 1800 <GPIO_Init+0x16>
    2ba8:	30079073          	csrw	mstatus,a5
    2bac:	00005637          	lui	a2,0x5
    2bb0:	00004537          	lui	a0,0x4
    2bb4:	85460613          	addi	a2,a2,-1964 # 4854 <digitCode+0x170>
    2bb8:	54b00593          	li	a1,1355
    2bbc:	7f450513          	addi	a0,a0,2036 # 47f4 <digitCode+0x110>
    2bc0:	04d000ef          	jal	ra,340c <iprintf>
    2bc4:	a001                	j	2bc4 <vTaskDelay+0x40>
    2bc6:	c62a                	sw	a0,12(sp)
    2bc8:	c8fff0ef          	jal	ra,2856 <vTaskSuspendAll>
    2bcc:	4532                	lw	a0,12(sp)
    2bce:	4581                	li	a1,0
    2bd0:	8f9ff0ef          	jal	ra,24c8 <prvAddCurrentTaskToDelayedList>
    2bd4:	e49ff0ef          	jal	ra,2a1c <xTaskResumeAll>
    2bd8:	e511                	bnez	a0,2be4 <vTaskDelay+0x60>
    2bda:	e000e7b7          	lui	a5,0xe000e
    2bde:	6711                	lui	a4,0x4
    2be0:	20e7a023          	sw	a4,512(a5) # e000e200 <__freertos_irq_stack_top+0xc0009200>
    2be4:	0141                	addi	sp,sp,16
    2be6:	85dfd06f          	j	442 <__riscv_restore_0>

00002bea <vTaskSwitchContext>:
    2bea:	200007b7          	lui	a5,0x20000
    2bee:	1047a703          	lw	a4,260(a5) # 20000104 <uxSchedulerSuspended>
    2bf2:	200007b7          	lui	a5,0x20000
    2bf6:	12878793          	addi	a5,a5,296 # 20000128 <xYieldPending>
    2bfa:	c701                	beqz	a4,2c02 <vTaskSwitchContext+0x18>
    2bfc:	4705                	li	a4,1
    2bfe:	c398                	sw	a4,0(a5)
    2c00:	8082                	ret
    2c02:	0007a023          	sw	zero,0(a5)
    2c06:	200007b7          	lui	a5,0x20000
    2c0a:	10c78713          	addi	a4,a5,268 # 2000010c <uxTopReadyPriority>
    2c0e:	4318                	lw	a4,0(a4)
    2c10:	10c78613          	addi	a2,a5,268
    2c14:	200037b7          	lui	a5,0x20003
    2c18:	18c78793          	addi	a5,a5,396 # 2000318c <pxReadyTasksLists>
    2c1c:	4851                	li	a6,20
    2c1e:	030706b3          	mul	a3,a4,a6
    2c22:	00d785b3          	add	a1,a5,a3
    2c26:	4188                	lw	a0,0(a1)
    2c28:	c515                	beqz	a0,2c54 <vTaskSwitchContext+0x6a>
    2c2a:	41c8                	lw	a0,4(a1)
    2c2c:	06a1                	addi	a3,a3,8
    2c2e:	96be                	add	a3,a3,a5
    2c30:	4148                	lw	a0,4(a0)
    2c32:	c1c8                	sw	a0,4(a1)
    2c34:	00d51463          	bne	a0,a3,2c3c <vTaskSwitchContext+0x52>
    2c38:	4154                	lw	a3,4(a0)
    2c3a:	c1d4                	sw	a3,4(a1)
    2c3c:	46d1                	li	a3,20
    2c3e:	02d706b3          	mul	a3,a4,a3
    2c42:	97b6                	add	a5,a5,a3
    2c44:	43dc                	lw	a5,4(a5)
    2c46:	47d4                	lw	a3,12(a5)
    2c48:	200007b7          	lui	a5,0x20000
    2c4c:	0ed7a823          	sw	a3,240(a5) # 200000f0 <pxCurrentTCB>
    2c50:	c218                	sw	a4,0(a2)
    2c52:	8082                	ret
    2c54:	e715                	bnez	a4,2c80 <vTaskSwitchContext+0x96>
    2c56:	fc8fd2ef          	jal	t0,41e <__riscv_save_0>
    2c5a:	6789                	lui	a5,0x2
    2c5c:	80078793          	addi	a5,a5,-2048 # 1800 <GPIO_Init+0x16>
    2c60:	30079073          	csrw	mstatus,a5
    2c64:	00005637          	lui	a2,0x5
    2c68:	6585                	lui	a1,0x1
    2c6a:	00004537          	lui	a0,0x4
    2c6e:	85460613          	addi	a2,a2,-1964 # 4854 <digitCode+0x170>
    2c72:	c0458593          	addi	a1,a1,-1020 # c04 <pinMode+0x2aa>
    2c76:	7f450513          	addi	a0,a0,2036 # 47f4 <digitCode+0x110>
    2c7a:	792000ef          	jal	ra,340c <iprintf>
    2c7e:	a001                	j	2c7e <vTaskSwitchContext+0x94>
    2c80:	177d                	addi	a4,a4,-1
    2c82:	bf71                	j	2c1e <vTaskSwitchContext+0x34>

00002c84 <vTaskPlaceOnEventList>:
    2c84:	f9afd2ef          	jal	t0,41e <__riscv_save_0>
    2c88:	e505                	bnez	a0,2cb0 <vTaskPlaceOnEventList+0x2c>
    2c8a:	6789                	lui	a5,0x2
    2c8c:	80078793          	addi	a5,a5,-2048 # 1800 <GPIO_Init+0x16>
    2c90:	30079073          	csrw	mstatus,a5
    2c94:	00005637          	lui	a2,0x5
    2c98:	6585                	lui	a1,0x1
    2c9a:	00004537          	lui	a0,0x4
    2c9e:	85460613          	addi	a2,a2,-1964 # 4854 <digitCode+0x170>
    2ca2:	c1e58593          	addi	a1,a1,-994 # c1e <pinMode+0x2c4>
    2ca6:	7f450513          	addi	a0,a0,2036 # 47f4 <digitCode+0x110>
    2caa:	762000ef          	jal	ra,340c <iprintf>
    2cae:	a001                	j	2cae <vTaskPlaceOnEventList+0x2a>
    2cb0:	200007b7          	lui	a5,0x20000
    2cb4:	842e                	mv	s0,a1
    2cb6:	0f07a583          	lw	a1,240(a5) # 200000f0 <pxCurrentTCB>
    2cba:	05e1                	addi	a1,a1,24
    2cbc:	ba6ff0ef          	jal	ra,2062 <vListInsert>
    2cc0:	4585                	li	a1,1
    2cc2:	8522                	mv	a0,s0
    2cc4:	805ff0ef          	jal	ra,24c8 <prvAddCurrentTaskToDelayedList>
    2cc8:	f7afd06f          	j	442 <__riscv_restore_0>

00002ccc <vTaskPlaceOnEventListRestricted>:
    2ccc:	f52fd2ef          	jal	t0,41e <__riscv_save_0>
    2cd0:	872a                	mv	a4,a0
    2cd2:	e505                	bnez	a0,2cfa <vTaskPlaceOnEventListRestricted+0x2e>
    2cd4:	6789                	lui	a5,0x2
    2cd6:	80078793          	addi	a5,a5,-2048 # 1800 <GPIO_Init+0x16>
    2cda:	30079073          	csrw	mstatus,a5
    2cde:	00005637          	lui	a2,0x5
    2ce2:	6585                	lui	a1,0x1
    2ce4:	00004537          	lui	a0,0x4
    2ce8:	85460613          	addi	a2,a2,-1964 # 4854 <digitCode+0x170>
    2cec:	c5458593          	addi	a1,a1,-940 # c54 <pinMode+0x2fa>
    2cf0:	7f450513          	addi	a0,a0,2036 # 47f4 <digitCode+0x110>
    2cf4:	718000ef          	jal	ra,340c <iprintf>
    2cf8:	a001                	j	2cf8 <vTaskPlaceOnEventListRestricted+0x2c>
    2cfa:	200007b7          	lui	a5,0x20000
    2cfe:	0f078793          	addi	a5,a5,240 # 200000f0 <pxCurrentTCB>
    2d02:	4354                	lw	a3,4(a4)
    2d04:	852e                	mv	a0,a1
    2d06:	438c                	lw	a1,0(a5)
    2d08:	0086a803          	lw	a6,8(a3)
    2d0c:	cdd4                	sw	a3,28(a1)
    2d0e:	438c                	lw	a1,0(a5)
    2d10:	0305a023          	sw	a6,32(a1)
    2d14:	0007a803          	lw	a6,0(a5)
    2d18:	468c                	lw	a1,8(a3)
    2d1a:	0861                	addi	a6,a6,24
    2d1c:	0105a223          	sw	a6,4(a1)
    2d20:	0007a803          	lw	a6,0(a5)
    2d24:	439c                	lw	a5,0(a5)
    2d26:	0861                	addi	a6,a6,24
    2d28:	0106a423          	sw	a6,8(a3)
    2d2c:	d798                	sw	a4,40(a5)
    2d2e:	431c                	lw	a5,0(a4)
    2d30:	0785                	addi	a5,a5,1
    2d32:	c31c                	sw	a5,0(a4)
    2d34:	c211                	beqz	a2,2d38 <vTaskPlaceOnEventListRestricted+0x6c>
    2d36:	557d                	li	a0,-1
    2d38:	85b2                	mv	a1,a2
    2d3a:	f8eff0ef          	jal	ra,24c8 <prvAddCurrentTaskToDelayedList>
    2d3e:	f04fd06f          	j	442 <__riscv_restore_0>

00002d42 <xTaskRemoveFromEventList>:
    2d42:	455c                	lw	a5,12(a0)
    2d44:	47dc                	lw	a5,12(a5)
    2d46:	e78d                	bnez	a5,2d70 <xTaskRemoveFromEventList+0x2e>
    2d48:	ed6fd2ef          	jal	t0,41e <__riscv_save_0>
    2d4c:	6789                	lui	a5,0x2
    2d4e:	80078793          	addi	a5,a5,-2048 # 1800 <GPIO_Init+0x16>
    2d52:	30079073          	csrw	mstatus,a5
    2d56:	00005637          	lui	a2,0x5
    2d5a:	6585                	lui	a1,0x1
    2d5c:	00004537          	lui	a0,0x4
    2d60:	85460613          	addi	a2,a2,-1964 # 4854 <digitCode+0x170>
    2d64:	c8458593          	addi	a1,a1,-892 # c84 <pinMode+0x32a>
    2d68:	7f450513          	addi	a0,a0,2036 # 47f4 <digitCode+0x110>
    2d6c:	2545                	jal	340c <iprintf>
    2d6e:	a001                	j	2d6e <xTaskRemoveFromEventList+0x2c>
    2d70:	4fd0                	lw	a2,28(a5)
    2d72:	5394                	lw	a3,32(a5)
    2d74:	5798                	lw	a4,40(a5)
    2d76:	01878593          	addi	a1,a5,24
    2d7a:	c614                	sw	a3,8(a2)
    2d7c:	c2d0                	sw	a2,4(a3)
    2d7e:	4350                	lw	a2,4(a4)
    2d80:	00b61363          	bne	a2,a1,2d86 <xTaskRemoveFromEventList+0x44>
    2d84:	c354                	sw	a3,4(a4)
    2d86:	4314                	lw	a3,0(a4)
    2d88:	0207a423          	sw	zero,40(a5)
    2d8c:	16fd                	addi	a3,a3,-1
    2d8e:	c314                	sw	a3,0(a4)
    2d90:	20000737          	lui	a4,0x20000
    2d94:	10472703          	lw	a4,260(a4) # 20000104 <uxSchedulerSuspended>
    2d98:	57d4                	lw	a3,44(a5)
    2d9a:	ef25                	bnez	a4,2e12 <xTaskRemoveFromEventList+0xd0>
    2d9c:	478c                	lw	a1,8(a5)
    2d9e:	47d0                	lw	a2,12(a5)
    2da0:	4bd8                	lw	a4,20(a5)
    2da2:	c590                	sw	a2,8(a1)
    2da4:	47d0                	lw	a2,12(a5)
    2da6:	4348                	lw	a0,4(a4)
    2da8:	c24c                	sw	a1,4(a2)
    2daa:	00478593          	addi	a1,a5,4
    2dae:	00b51363          	bne	a0,a1,2db4 <xTaskRemoveFromEventList+0x72>
    2db2:	c350                	sw	a2,4(a4)
    2db4:	4310                	lw	a2,0(a4)
    2db6:	0007aa23          	sw	zero,20(a5)
    2dba:	167d                	addi	a2,a2,-1
    2dbc:	c310                	sw	a2,0(a4)
    2dbe:	20000737          	lui	a4,0x20000
    2dc2:	10c70713          	addi	a4,a4,268 # 2000010c <uxTopReadyPriority>
    2dc6:	4310                	lw	a2,0(a4)
    2dc8:	00d67363          	bgeu	a2,a3,2dce <xTaskRemoveFromEventList+0x8c>
    2dcc:	c314                	sw	a3,0(a4)
    2dce:	4751                	li	a4,20
    2dd0:	02e68633          	mul	a2,a3,a4
    2dd4:	20003737          	lui	a4,0x20003
    2dd8:	18c70713          	addi	a4,a4,396 # 2000318c <pxReadyTasksLists>
    2ddc:	9732                	add	a4,a4,a2
    2dde:	4350                	lw	a2,4(a4)
    2de0:	4608                	lw	a0,8(a2)
    2de2:	c790                	sw	a2,8(a5)
    2de4:	c7c8                	sw	a0,12(a5)
    2de6:	4608                	lw	a0,8(a2)
    2de8:	c14c                	sw	a1,4(a0)
    2dea:	c60c                	sw	a1,8(a2)
    2dec:	cbd8                	sw	a4,20(a5)
    2dee:	431c                	lw	a5,0(a4)
    2df0:	4501                	li	a0,0
    2df2:	0785                	addi	a5,a5,1
    2df4:	c31c                	sw	a5,0(a4)
    2df6:	200007b7          	lui	a5,0x20000
    2dfa:	0f07a783          	lw	a5,240(a5) # 200000f0 <pxCurrentTCB>
    2dfe:	57dc                	lw	a5,44(a5)
    2e00:	00d7f863          	bgeu	a5,a3,2e10 <xTaskRemoveFromEventList+0xce>
    2e04:	200007b7          	lui	a5,0x20000
    2e08:	4705                	li	a4,1
    2e0a:	12e7a423          	sw	a4,296(a5) # 20000128 <xYieldPending>
    2e0e:	4505                	li	a0,1
    2e10:	8082                	ret
    2e12:	20003737          	lui	a4,0x20003
    2e16:	2e070713          	addi	a4,a4,736 # 200032e0 <xPendingReadyList>
    2e1a:	4350                	lw	a2,4(a4)
    2e1c:	4608                	lw	a0,8(a2)
    2e1e:	cfd0                	sw	a2,28(a5)
    2e20:	d388                	sw	a0,32(a5)
    2e22:	4608                	lw	a0,8(a2)
    2e24:	c14c                	sw	a1,4(a0)
    2e26:	c60c                	sw	a1,8(a2)
    2e28:	d798                	sw	a4,40(a5)
    2e2a:	b7d1                	j	2dee <xTaskRemoveFromEventList+0xac>

00002e2c <vTaskInternalSetTimeOutState>:
    2e2c:	200007b7          	lui	a5,0x20000
    2e30:	1187a783          	lw	a5,280(a5) # 20000118 <xNumOfOverflows>
    2e34:	c11c                	sw	a5,0(a0)
    2e36:	200007b7          	lui	a5,0x20000
    2e3a:	1247a783          	lw	a5,292(a5) # 20000124 <xTickCount>
    2e3e:	c15c                	sw	a5,4(a0)
    2e40:	8082                	ret

00002e42 <xTaskCheckForTimeOut>:
    2e42:	ddcfd2ef          	jal	t0,41e <__riscv_save_0>
    2e46:	1141                	addi	sp,sp,-16
    2e48:	e11d                	bnez	a0,2e6e <xTaskCheckForTimeOut+0x2c>
    2e4a:	6789                	lui	a5,0x2
    2e4c:	80078793          	addi	a5,a5,-2048 # 1800 <GPIO_Init+0x16>
    2e50:	30079073          	csrw	mstatus,a5
    2e54:	00005637          	lui	a2,0x5
    2e58:	6585                	lui	a1,0x1
    2e5a:	00004537          	lui	a0,0x4
    2e5e:	85460613          	addi	a2,a2,-1964 # 4854 <digitCode+0x170>
    2e62:	cff58593          	addi	a1,a1,-769 # cff <pinMode+0x3a5>
    2e66:	7f450513          	addi	a0,a0,2036 # 47f4 <digitCode+0x110>
    2e6a:	234d                	jal	340c <iprintf>
    2e6c:	a001                	j	2e6c <xTaskCheckForTimeOut+0x2a>
    2e6e:	e19d                	bnez	a1,2e94 <xTaskCheckForTimeOut+0x52>
    2e70:	6789                	lui	a5,0x2
    2e72:	80078793          	addi	a5,a5,-2048 # 1800 <GPIO_Init+0x16>
    2e76:	30079073          	csrw	mstatus,a5
    2e7a:	00005637          	lui	a2,0x5
    2e7e:	6585                	lui	a1,0x1
    2e80:	00004537          	lui	a0,0x4
    2e84:	85460613          	addi	a2,a2,-1964 # 4854 <digitCode+0x170>
    2e88:	d0058593          	addi	a1,a1,-768 # d00 <pinMode+0x3a6>
    2e8c:	7f450513          	addi	a0,a0,2036 # 47f4 <digitCode+0x110>
    2e90:	2bb5                	jal	340c <iprintf>
    2e92:	a001                	j	2e92 <xTaskCheckForTimeOut+0x50>
    2e94:	c62e                	sw	a1,12(sp)
    2e96:	c42a                	sw	a0,8(sp)
    2e98:	958ff0ef          	jal	ra,1ff0 <vPortEnterCritical>
    2e9c:	20000737          	lui	a4,0x20000
    2ea0:	200007b7          	lui	a5,0x20000
    2ea4:	0f070713          	addi	a4,a4,240 # 200000f0 <pxCurrentTCB>
    2ea8:	1247a683          	lw	a3,292(a5) # 20000124 <xTickCount>
    2eac:	431c                	lw	a5,0(a4)
    2eae:	4522                	lw	a0,8(sp)
    2eb0:	45b2                	lw	a1,12(sp)
    2eb2:	0517c783          	lbu	a5,81(a5)
    2eb6:	cb99                	beqz	a5,2ecc <xTaskCheckForTimeOut+0x8a>
    2eb8:	431c                	lw	a5,0(a4)
    2eba:	040788a3          	sb	zero,81(a5)
    2ebe:	4405                	li	s0,1
    2ec0:	946ff0ef          	jal	ra,2006 <vPortExitCritical>
    2ec4:	8522                	mv	a0,s0
    2ec6:	0141                	addi	sp,sp,16
    2ec8:	d7afd06f          	j	442 <__riscv_restore_0>
    2ecc:	419c                	lw	a5,0(a1)
    2ece:	577d                	li	a4,-1
    2ed0:	4401                	li	s0,0
    2ed2:	fee787e3          	beq	a5,a4,2ec0 <xTaskCheckForTimeOut+0x7e>
    2ed6:	20000637          	lui	a2,0x20000
    2eda:	11862603          	lw	a2,280(a2) # 20000118 <xNumOfOverflows>
    2ede:	00052803          	lw	a6,0(a0)
    2ee2:	4158                	lw	a4,4(a0)
    2ee4:	00c80763          	beq	a6,a2,2ef2 <xTaskCheckForTimeOut+0xb0>
    2ee8:	00e6e563          	bltu	a3,a4,2ef2 <xTaskCheckForTimeOut+0xb0>
    2eec:	0005a023          	sw	zero,0(a1)
    2ef0:	b7f9                	j	2ebe <xTaskCheckForTimeOut+0x7c>
    2ef2:	40e68633          	sub	a2,a3,a4
    2ef6:	fef67be3          	bgeu	a2,a5,2eec <xTaskCheckForTimeOut+0xaa>
    2efa:	8f95                	sub	a5,a5,a3
    2efc:	97ba                	add	a5,a5,a4
    2efe:	c19c                	sw	a5,0(a1)
    2f00:	3735                	jal	2e2c <vTaskInternalSetTimeOutState>
    2f02:	4401                	li	s0,0
    2f04:	bf75                	j	2ec0 <xTaskCheckForTimeOut+0x7e>

00002f06 <vTaskMissedYield>:
    2f06:	200007b7          	lui	a5,0x20000
    2f0a:	4705                	li	a4,1
    2f0c:	12e7a423          	sw	a4,296(a5) # 20000128 <xYieldPending>
    2f10:	8082                	ret

00002f12 <xTaskGetSchedulerState>:
    2f12:	200007b7          	lui	a5,0x20000
    2f16:	1207a783          	lw	a5,288(a5) # 20000120 <xSchedulerRunning>
    2f1a:	4505                	li	a0,1
    2f1c:	cb81                	beqz	a5,2f2c <xTaskGetSchedulerState+0x1a>
    2f1e:	200007b7          	lui	a5,0x20000
    2f22:	1047a503          	lw	a0,260(a5) # 20000104 <uxSchedulerSuspended>
    2f26:	00153513          	seqz	a0,a0
    2f2a:	0506                	slli	a0,a0,0x1
    2f2c:	8082                	ret

00002f2e <prvCheckForValidListAndQueue>:
    2f2e:	cf0fd2ef          	jal	t0,41e <__riscv_save_0>
    2f32:	20000437          	lui	s0,0x20000
    2f36:	8baff0ef          	jal	ra,1ff0 <vPortEnterCritical>
    2f3a:	13840413          	addi	s0,s0,312 # 20000138 <xTimerQueue>
    2f3e:	401c                	lw	a5,0(s0)
    2f40:	e7b1                	bnez	a5,2f8c <prvCheckForValidListAndQueue+0x5e>
    2f42:	20003537          	lui	a0,0x20003
    2f46:	31c50913          	addi	s2,a0,796 # 2000331c <xActiveTimerList1>
    2f4a:	31c50513          	addi	a0,a0,796
    2f4e:	8faff0ef          	jal	ra,2048 <vListInitialise>
    2f52:	20003537          	lui	a0,0x20003
    2f56:	33050493          	addi	s1,a0,816 # 20003330 <xActiveTimerList2>
    2f5a:	33050513          	addi	a0,a0,816
    2f5e:	8eaff0ef          	jal	ra,2048 <vListInitialise>
    2f62:	200007b7          	lui	a5,0x20000
    2f66:	1327a623          	sw	s2,300(a5) # 2000012c <pxCurrentTimerList>
    2f6a:	4601                	li	a2,0
    2f6c:	200007b7          	lui	a5,0x20000
    2f70:	45c1                	li	a1,16
    2f72:	4511                	li	a0,4
    2f74:	1297a823          	sw	s1,304(a5) # 20000130 <pxOverflowTimerList>
    2f78:	aa4ff0ef          	jal	ra,221c <xQueueGenericCreate>
    2f7c:	c008                	sw	a0,0(s0)
    2f7e:	c519                	beqz	a0,2f8c <prvCheckForValidListAndQueue+0x5e>
    2f80:	000055b7          	lui	a1,0x5
    2f84:	89458593          	addi	a1,a1,-1900 # 4894 <digitCode+0x1b0>
    2f88:	c54ff0ef          	jal	ra,23dc <vQueueAddToRegistry>
    2f8c:	87aff0ef          	jal	ra,2006 <vPortExitCritical>
    2f90:	cb2fd06f          	j	442 <__riscv_restore_0>

00002f94 <prvInsertTimerInActiveList>:
    2f94:	c8afd2ef          	jal	t0,41e <__riscv_save_0>
    2f98:	c14c                	sw	a1,4(a0)
    2f9a:	c908                	sw	a0,16(a0)
    2f9c:	87aa                	mv	a5,a0
    2f9e:	02b66263          	bltu	a2,a1,2fc2 <prvInsertTimerInActiveList+0x2e>
    2fa2:	4d18                	lw	a4,24(a0)
    2fa4:	8e15                	sub	a2,a2,a3
    2fa6:	4505                	li	a0,1
    2fa8:	00e67b63          	bgeu	a2,a4,2fbe <prvInsertTimerInActiveList+0x2a>
    2fac:	00478593          	addi	a1,a5,4
    2fb0:	200007b7          	lui	a5,0x20000
    2fb4:	1307a503          	lw	a0,304(a5) # 20000130 <pxOverflowTimerList>
    2fb8:	8aaff0ef          	jal	ra,2062 <vListInsert>
    2fbc:	4501                	li	a0,0
    2fbe:	c84fd06f          	j	442 <__riscv_restore_0>
    2fc2:	00d67563          	bgeu	a2,a3,2fcc <prvInsertTimerInActiveList+0x38>
    2fc6:	4505                	li	a0,1
    2fc8:	fed5fbe3          	bgeu	a1,a3,2fbe <prvInsertTimerInActiveList+0x2a>
    2fcc:	00478593          	addi	a1,a5,4
    2fd0:	200007b7          	lui	a5,0x20000
    2fd4:	12c7a503          	lw	a0,300(a5) # 2000012c <pxCurrentTimerList>
    2fd8:	b7c5                	j	2fb8 <prvInsertTimerInActiveList+0x24>

00002fda <prvReloadTimer>:
    2fda:	c44fd2ef          	jal	t0,41e <__riscv_save_0>
    2fde:	842a                	mv	s0,a0
    2fe0:	84ae                	mv	s1,a1
    2fe2:	8932                	mv	s2,a2
    2fe4:	4c0c                	lw	a1,24(s0)
    2fe6:	86a6                	mv	a3,s1
    2fe8:	864a                	mv	a2,s2
    2fea:	95a6                	add	a1,a1,s1
    2fec:	8522                	mv	a0,s0
    2fee:	375d                	jal	2f94 <prvInsertTimerInActiveList>
    2ff0:	e119                	bnez	a0,2ff6 <prvReloadTimer+0x1c>
    2ff2:	c50fd06f          	j	442 <__riscv_restore_0>
    2ff6:	4c1c                	lw	a5,24(s0)
    2ff8:	8522                	mv	a0,s0
    2ffa:	94be                	add	s1,s1,a5
    2ffc:	501c                	lw	a5,32(s0)
    2ffe:	9782                	jalr	a5
    3000:	b7d5                	j	2fe4 <prvReloadTimer+0xa>

00003002 <prvProcessExpiredTimer>:
    3002:	c1cfd2ef          	jal	t0,41e <__riscv_save_0>
    3006:	200007b7          	lui	a5,0x20000
    300a:	12c7a783          	lw	a5,300(a5) # 2000012c <pxCurrentTimerList>
    300e:	1141                	addi	sp,sp,-16
    3010:	84aa                	mv	s1,a0
    3012:	47dc                	lw	a5,12(a5)
    3014:	c62e                	sw	a1,12(sp)
    3016:	47c0                	lw	s0,12(a5)
    3018:	00440513          	addi	a0,s0,4
    301c:	874ff0ef          	jal	ra,2090 <uxListRemove>
    3020:	02444783          	lbu	a5,36(s0)
    3024:	4632                	lw	a2,12(sp)
    3026:	0047f713          	andi	a4,a5,4
    302a:	cb11                	beqz	a4,303e <prvProcessExpiredTimer+0x3c>
    302c:	85a6                	mv	a1,s1
    302e:	8522                	mv	a0,s0
    3030:	376d                	jal	2fda <prvReloadTimer>
    3032:	501c                	lw	a5,32(s0)
    3034:	8522                	mv	a0,s0
    3036:	9782                	jalr	a5
    3038:	0141                	addi	sp,sp,16
    303a:	c08fd06f          	j	442 <__riscv_restore_0>
    303e:	9bf9                	andi	a5,a5,-2
    3040:	02f40223          	sb	a5,36(s0)
    3044:	b7fd                	j	3032 <prvProcessExpiredTimer+0x30>

00003046 <prvSwitchTimerLists>:
    3046:	bd8fd2ef          	jal	t0,41e <__riscv_save_0>
    304a:	20000437          	lui	s0,0x20000
    304e:	12c40693          	addi	a3,s0,300 # 2000012c <pxCurrentTimerList>
    3052:	4298                	lw	a4,0(a3)
    3054:	431c                	lw	a5,0(a4)
    3056:	eb91                	bnez	a5,306a <prvSwitchTimerLists+0x24>
    3058:	200007b7          	lui	a5,0x20000
    305c:	13078793          	addi	a5,a5,304 # 20000130 <pxOverflowTimerList>
    3060:	4390                	lw	a2,0(a5)
    3062:	c398                	sw	a4,0(a5)
    3064:	c290                	sw	a2,0(a3)
    3066:	bdcfd06f          	j	442 <__riscv_restore_0>
    306a:	475c                	lw	a5,12(a4)
    306c:	55fd                	li	a1,-1
    306e:	4388                	lw	a0,0(a5)
    3070:	3f49                	jal	3002 <prvProcessExpiredTimer>
    3072:	bff1                	j	304e <prvSwitchTimerLists+0x8>

00003074 <prvTimerTask>:
    3074:	b82fd2ef          	jal	t0,3f6 <__riscv_save_10>
    3078:	6915                	lui	s2,0x5
    307a:	1141                	addi	sp,sp,-16
    307c:	20000ab7          	lui	s5,0x20000
    3080:	200009b7          	lui	s3,0x20000
    3084:	20000b37          	lui	s6,0x20000
    3088:	20000bb7          	lui	s7,0x20000
    308c:	87090913          	addi	s2,s2,-1936 # 4870 <digitCode+0x18c>
    3090:	12caa783          	lw	a5,300(s5) # 2000012c <pxCurrentTimerList>
    3094:	4398                	lw	a4,0(a5)
    3096:	cb29                	beqz	a4,30e8 <prvTimerTask+0x74>
    3098:	47dc                	lw	a5,12(a5)
    309a:	4c81                	li	s9,0
    309c:	0007ac03          	lw	s8,0(a5)
    30a0:	fb6ff0ef          	jal	ra,2856 <vTaskSuspendAll>
    30a4:	fc2ff0ef          	jal	ra,2866 <xTaskGetTickCount>
    30a8:	1349a783          	lw	a5,308(s3) # 20000134 <xLastTime.5346>
    30ac:	842a                	mv	s0,a0
    30ae:	13498493          	addi	s1,s3,308
    30b2:	138b0a13          	addi	s4,s6,312 # 20000138 <xTimerQueue>
    30b6:	02f56c63          	bltu	a0,a5,30ee <prvTimerTask+0x7a>
    30ba:	c088                	sw	a0,0(s1)
    30bc:	020c8f63          	beqz	s9,30fa <prvTimerTask+0x86>
    30c0:	130ba783          	lw	a5,304(s7) # 20000130 <pxOverflowTimerList>
    30c4:	4390                	lw	a2,0(a5)
    30c6:	00163613          	seqz	a2,a2
    30ca:	000a2503          	lw	a0,0(s4)
    30ce:	408c05b3          	sub	a1,s8,s0
    30d2:	b76ff0ef          	jal	ra,2448 <vQueueWaitForMessageRestricted>
    30d6:	947ff0ef          	jal	ra,2a1c <xTaskResumeAll>
    30da:	ed11                	bnez	a0,30f6 <prvTimerTask+0x82>
    30dc:	e000e7b7          	lui	a5,0xe000e
    30e0:	6711                	lui	a4,0x4
    30e2:	20e7a023          	sw	a4,512(a5) # e000e200 <__freertos_irq_stack_top+0xc0009200>
    30e6:	a801                	j	30f6 <prvTimerTask+0x82>
    30e8:	4c85                	li	s9,1
    30ea:	4c01                	li	s8,0
    30ec:	bf55                	j	30a0 <prvTimerTask+0x2c>
    30ee:	3fa1                	jal	3046 <prvSwitchTimerLists>
    30f0:	c080                	sw	s0,0(s1)
    30f2:	92bff0ef          	jal	ra,2a1c <xTaskResumeAll>
    30f6:	4c21                	li	s8,8
    30f8:	a00d                	j	311a <prvTimerTask+0xa6>
    30fa:	4601                	li	a2,0
    30fc:	fd8567e3          	bltu	a0,s8,30ca <prvTimerTask+0x56>
    3100:	91dff0ef          	jal	ra,2a1c <xTaskResumeAll>
    3104:	85a2                	mv	a1,s0
    3106:	8562                	mv	a0,s8
    3108:	efbff0ef          	jal	ra,3002 <prvProcessExpiredTimer>
    310c:	b7ed                	j	30f6 <prvTimerTask+0x82>
    310e:	4792                	lw	a5,4(sp)
    3110:	45b2                	lw	a1,12(sp)
    3112:	9782                	jalr	a5
    3114:	4782                	lw	a5,0(sp)
    3116:	0007dd63          	bgez	a5,3130 <prvTimerTask+0xbc>
    311a:	000a2503          	lw	a0,0(s4)
    311e:	4601                	li	a2,0
    3120:	858a                	mv	a1,sp
    3122:	966ff0ef          	jal	ra,2288 <xQueueReceive>
    3126:	d52d                	beqz	a0,3090 <prvTimerTask+0x1c>
    3128:	4782                	lw	a5,0(sp)
    312a:	4522                	lw	a0,8(sp)
    312c:	fe07c1e3          	bltz	a5,310e <prvTimerTask+0x9a>
    3130:	4422                	lw	s0,8(sp)
    3132:	485c                	lw	a5,20(s0)
    3134:	e39d                	bnez	a5,315a <prvTimerTask+0xe6>
    3136:	f30ff0ef          	jal	ra,2866 <xTaskGetTickCount>
    313a:	409c                	lw	a5,0(s1)
    313c:	8caa                	mv	s9,a0
    313e:	00f57463          	bgeu	a0,a5,3146 <prvTimerTask+0xd2>
    3142:	f05ff0ef          	jal	ra,3046 <prvSwitchTimerLists>
    3146:	4782                	lw	a5,0(sp)
    3148:	0194a023          	sw	s9,0(s1)
    314c:	17fd                	addi	a5,a5,-1
    314e:	fcfc66e3          	bltu	s8,a5,311a <prvTimerTask+0xa6>
    3152:	078a                	slli	a5,a5,0x2
    3154:	97ca                	add	a5,a5,s2
    3156:	439c                	lw	a5,0(a5)
    3158:	8782                	jr	a5
    315a:	00440513          	addi	a0,s0,4
    315e:	f33fe0ef          	jal	ra,2090 <uxListRemove>
    3162:	bfd1                	j	3136 <prvTimerTask+0xc2>
    3164:	02444783          	lbu	a5,36(s0)
    3168:	4c0c                	lw	a1,24(s0)
    316a:	4692                	lw	a3,4(sp)
    316c:	0017e793          	ori	a5,a5,1
    3170:	02f40223          	sb	a5,36(s0)
    3174:	8666                	mv	a2,s9
    3176:	95b6                	add	a1,a1,a3
    3178:	8522                	mv	a0,s0
    317a:	e1bff0ef          	jal	ra,2f94 <prvInsertTimerInActiveList>
    317e:	dd51                	beqz	a0,311a <prvTimerTask+0xa6>
    3180:	02444783          	lbu	a5,36(s0)
    3184:	0047f713          	andi	a4,a5,4
    3188:	cf01                	beqz	a4,31a0 <prvTimerTask+0x12c>
    318a:	4c1c                	lw	a5,24(s0)
    318c:	4592                	lw	a1,4(sp)
    318e:	8666                	mv	a2,s9
    3190:	8522                	mv	a0,s0
    3192:	95be                	add	a1,a1,a5
    3194:	e47ff0ef          	jal	ra,2fda <prvReloadTimer>
    3198:	501c                	lw	a5,32(s0)
    319a:	8522                	mv	a0,s0
    319c:	9782                	jalr	a5
    319e:	bfb5                	j	311a <prvTimerTask+0xa6>
    31a0:	9bf9                	andi	a5,a5,-2
    31a2:	02f40223          	sb	a5,36(s0)
    31a6:	bfcd                	j	3198 <prvTimerTask+0x124>
    31a8:	02444783          	lbu	a5,36(s0)
    31ac:	9bf9                	andi	a5,a5,-2
    31ae:	02f40223          	sb	a5,36(s0)
    31b2:	b7a5                	j	311a <prvTimerTask+0xa6>
    31b4:	02444783          	lbu	a5,36(s0)
    31b8:	4592                	lw	a1,4(sp)
    31ba:	0017e793          	ori	a5,a5,1
    31be:	02f40223          	sb	a5,36(s0)
    31c2:	cc0c                	sw	a1,24(s0)
    31c4:	e195                	bnez	a1,31e8 <prvTimerTask+0x174>
    31c6:	6789                	lui	a5,0x2
    31c8:	80078793          	addi	a5,a5,-2048 # 1800 <GPIO_Init+0x16>
    31cc:	30079073          	csrw	mstatus,a5
    31d0:	00005637          	lui	a2,0x5
    31d4:	00004537          	lui	a0,0x4
    31d8:	89c60613          	addi	a2,a2,-1892 # 489c <digitCode+0x1b8>
    31dc:	35900593          	li	a1,857
    31e0:	7f450513          	addi	a0,a0,2036 # 47f4 <digitCode+0x110>
    31e4:	2425                	jal	340c <iprintf>
    31e6:	a001                	j	31e6 <prvTimerTask+0x172>
    31e8:	86e6                	mv	a3,s9
    31ea:	8666                	mv	a2,s9
    31ec:	95e6                	add	a1,a1,s9
    31ee:	8522                	mv	a0,s0
    31f0:	da5ff0ef          	jal	ra,2f94 <prvInsertTimerInActiveList>
    31f4:	b71d                	j	311a <prvTimerTask+0xa6>
    31f6:	02444783          	lbu	a5,36(s0)
    31fa:	0027f713          	andi	a4,a5,2
    31fe:	f75d                	bnez	a4,31ac <prvTimerTask+0x138>
    3200:	8522                	mv	a0,s0
    3202:	c01fe0ef          	jal	ra,1e02 <vPortFree>
    3206:	bf11                	j	311a <prvTimerTask+0xa6>

00003208 <xTimerCreateTimerTask>:
    3208:	a16fd2ef          	jal	t0,41e <__riscv_save_0>
    320c:	d23ff0ef          	jal	ra,2f2e <prvCheckForValidListAndQueue>
    3210:	200007b7          	lui	a5,0x20000
    3214:	1387a783          	lw	a5,312(a5) # 20000138 <xTimerQueue>
    3218:	e395                	bnez	a5,323c <xTimerCreateTimerTask+0x34>
    321a:	6789                	lui	a5,0x2
    321c:	80078793          	addi	a5,a5,-2048 # 1800 <GPIO_Init+0x16>
    3220:	30079073          	csrw	mstatus,a5
    3224:	00005637          	lui	a2,0x5
    3228:	00004537          	lui	a0,0x4
    322c:	89c60613          	addi	a2,a2,-1892 # 489c <digitCode+0x1b8>
    3230:	11900593          	li	a1,281
    3234:	7f450513          	addi	a0,a0,2036 # 47f4 <digitCode+0x110>
    3238:	2ad1                	jal	340c <iprintf>
    323a:	a001                	j	323a <xTimerCreateTimerTask+0x32>
    323c:	200007b7          	lui	a5,0x20000
    3240:	000055b7          	lui	a1,0x5
    3244:	00003537          	lui	a0,0x3
    3248:	13c78793          	addi	a5,a5,316 # 2000013c <xTimerTaskHandle>
    324c:	4739                	li	a4,14
    324e:	4681                	li	a3,0
    3250:	10000613          	li	a2,256
    3254:	8b458593          	addi	a1,a1,-1868 # 48b4 <digitCode+0x1d0>
    3258:	07450513          	addi	a0,a0,116 # 3074 <prvTimerTask>
    325c:	b64ff0ef          	jal	ra,25c0 <xTaskCreate>
    3260:	dd4d                	beqz	a0,321a <xTimerCreateTimerTask+0x12>
    3262:	9e0fd06f          	j	442 <__riscv_restore_0>

00003266 <Delay_Init>:
    3266:	200007b7          	lui	a5,0x20000
    326a:	0707a783          	lw	a5,112(a5) # 20000070 <SystemCoreClock>
    326e:	007a1737          	lui	a4,0x7a1
    3272:	20070713          	addi	a4,a4,512 # 7a1200 <_data_lma+0x79c8a8>
    3276:	02e7d7b3          	divu	a5,a5,a4
    327a:	20000737          	lui	a4,0x20000
    327e:	0ff7f793          	andi	a5,a5,255
    3282:	14f70123          	sb	a5,322(a4) # 20000142 <p_us>
    3286:	3e800713          	li	a4,1000
    328a:	02e787b3          	mul	a5,a5,a4
    328e:	20000737          	lui	a4,0x20000
    3292:	14f71023          	sh	a5,320(a4) # 20000140 <p_ms>
    3296:	8082                	ret

00003298 <USART_Printf_Init>:
    3298:	986fd2ef          	jal	t0,41e <__riscv_save_0>
    329c:	842a                	mv	s0,a0
    329e:	6511                	lui	a0,0x4
    32a0:	1101                	addi	sp,sp,-32
    32a2:	4585                	li	a1,1
    32a4:	0521                	addi	a0,a0,8
    32a6:	895fe0ef          	jal	ra,1b3a <RCC_APB2PeriphClockCmd>
    32aa:	40000793          	li	a5,1024
    32ae:	c23e                	sw	a5,4(sp)
    32b0:	40011537          	lui	a0,0x40011
    32b4:	4785                	li	a5,1
    32b6:	c43e                	sw	a5,8(sp)
    32b8:	004c                	addi	a1,sp,4
    32ba:	47e1                	li	a5,24
    32bc:	c0050513          	addi	a0,a0,-1024 # 40010c00 <__freertos_irq_stack_top+0x2000bc00>
    32c0:	c63e                	sw	a5,12(sp)
    32c2:	d28fe0ef          	jal	ra,17ea <GPIO_Init>
    32c6:	c822                	sw	s0,16(sp)
    32c8:	40014437          	lui	s0,0x40014
    32cc:	000807b7          	lui	a5,0x80
    32d0:	080c                	addi	a1,sp,16
    32d2:	80040513          	addi	a0,s0,-2048 # 40013800 <__freertos_irq_stack_top+0x2000e800>
    32d6:	cc3e                	sw	a5,24(sp)
    32d8:	ca02                	sw	zero,20(sp)
    32da:	00011e23          	sh	zero,28(sp)
    32de:	899fe0ef          	jal	ra,1b76 <USART_Init>
    32e2:	4585                	li	a1,1
    32e4:	80040513          	addi	a0,s0,-2048
    32e8:	91dfe0ef          	jal	ra,1c04 <USART_Cmd>
    32ec:	6105                	addi	sp,sp,32
    32ee:	954fd06f          	j	442 <__riscv_restore_0>

000032f2 <_write>:
    32f2:	912fd2ef          	jal	t0,404 <__riscv_save_4>
    32f6:	400144b7          	lui	s1,0x40014
    32fa:	89ae                	mv	s3,a1
    32fc:	8932                	mv	s2,a2
    32fe:	4401                	li	s0,0
    3300:	80048493          	addi	s1,s1,-2048 # 40013800 <__freertos_irq_stack_top+0x2000e800>
    3304:	01244563          	blt	s0,s2,330e <_write+0x1c>
    3308:	854a                	mv	a0,s2
    330a:	92efd06f          	j	438 <__riscv_restore_4>
    330e:	04000593          	li	a1,64
    3312:	8526                	mv	a0,s1
    3314:	90ffe0ef          	jal	ra,1c22 <USART_GetFlagStatus>
    3318:	d97d                	beqz	a0,330e <_write+0x1c>
    331a:	008987b3          	add	a5,s3,s0
    331e:	00078583          	lb	a1,0(a5) # 80000 <_data_lma+0x7b6a8>
    3322:	8526                	mv	a0,s1
    3324:	0405                	addi	s0,s0,1
    3326:	05c2                	slli	a1,a1,0x10
    3328:	81c1                	srli	a1,a1,0x10
    332a:	8f1fe0ef          	jal	ra,1c1a <USART_SendData>
    332e:	bfd9                	j	3304 <_write+0x12>

00003330 <_sbrk>:
    3330:	81818713          	addi	a4,gp,-2024 # 20000088 <curbrk.4294>
    3334:	431c                	lw	a5,0(a4)
    3336:	200036b7          	lui	a3,0x20003
    333a:	34868693          	addi	a3,a3,840 # 20003348 <_ebss>
    333e:	953e                	add	a0,a0,a5
    3340:	00d56b63          	bltu	a0,a3,3356 <_sbrk+0x26>
    3344:	200056b7          	lui	a3,0x20005
    3348:	80068693          	addi	a3,a3,-2048 # 20004800 <_heap_end>
    334c:	00a6e563          	bltu	a3,a0,3356 <_sbrk+0x26>
    3350:	c308                	sw	a0,0(a4)
    3352:	853e                	mv	a0,a5
    3354:	8082                	ret
    3356:	57fd                	li	a5,-1
    3358:	bfed                	j	3352 <_sbrk+0x22>

0000335a <memcpy>:
    335a:	00a5c7b3          	xor	a5,a1,a0
    335e:	8b8d                	andi	a5,a5,3
    3360:	00c50733          	add	a4,a0,a2
    3364:	e781                	bnez	a5,336c <memcpy+0x12>
    3366:	478d                	li	a5,3
    3368:	00c7ed63          	bltu	a5,a2,3382 <memcpy+0x28>
    336c:	87aa                	mv	a5,a0
    336e:	08e57e63          	bgeu	a0,a4,340a <memcpy+0xb0>
    3372:	2194                	lbu	a3,0(a1)
    3374:	0785                	addi	a5,a5,1
    3376:	0585                	addi	a1,a1,1
    3378:	fed78fa3          	sb	a3,-1(a5)
    337c:	fee7ebe3          	bltu	a5,a4,3372 <memcpy+0x18>
    3380:	8082                	ret
    3382:	00357693          	andi	a3,a0,3
    3386:	87aa                	mv	a5,a0
    3388:	ca89                	beqz	a3,339a <memcpy+0x40>
    338a:	2194                	lbu	a3,0(a1)
    338c:	0785                	addi	a5,a5,1
    338e:	0585                	addi	a1,a1,1
    3390:	fed78fa3          	sb	a3,-1(a5)
    3394:	0037f693          	andi	a3,a5,3
    3398:	bfc5                	j	3388 <memcpy+0x2e>
    339a:	ffc77693          	andi	a3,a4,-4
    339e:	fe068613          	addi	a2,a3,-32
    33a2:	06c7f063          	bgeu	a5,a2,3402 <memcpy+0xa8>
    33a6:	0005a383          	lw	t2,0(a1)
    33aa:	0045a283          	lw	t0,4(a1)
    33ae:	0085af83          	lw	t6,8(a1)
    33b2:	00c5af03          	lw	t5,12(a1)
    33b6:	0105ae83          	lw	t4,16(a1)
    33ba:	0145ae03          	lw	t3,20(a1)
    33be:	0185a303          	lw	t1,24(a1)
    33c2:	01c5a883          	lw	a7,28(a1)
    33c6:	02458593          	addi	a1,a1,36
    33ca:	0077a023          	sw	t2,0(a5)
    33ce:	ffc5a803          	lw	a6,-4(a1)
    33d2:	0057a223          	sw	t0,4(a5)
    33d6:	01f7a423          	sw	t6,8(a5)
    33da:	01e7a623          	sw	t5,12(a5)
    33de:	01d7a823          	sw	t4,16(a5)
    33e2:	01c7aa23          	sw	t3,20(a5)
    33e6:	0067ac23          	sw	t1,24(a5)
    33ea:	0117ae23          	sw	a7,28(a5)
    33ee:	02478793          	addi	a5,a5,36
    33f2:	ff07ae23          	sw	a6,-4(a5)
    33f6:	b775                	j	33a2 <memcpy+0x48>
    33f8:	4190                	lw	a2,0(a1)
    33fa:	0791                	addi	a5,a5,4
    33fc:	0591                	addi	a1,a1,4
    33fe:	fec7ae23          	sw	a2,-4(a5)
    3402:	fed7ebe3          	bltu	a5,a3,33f8 <memcpy+0x9e>
    3406:	f6e7e6e3          	bltu	a5,a4,3372 <memcpy+0x18>
    340a:	8082                	ret

0000340c <iprintf>:
    340c:	7139                	addi	sp,sp,-64
    340e:	da3e                	sw	a5,52(sp)
    3410:	d22e                	sw	a1,36(sp)
    3412:	d432                	sw	a2,40(sp)
    3414:	d636                	sw	a3,44(sp)
    3416:	d83a                	sw	a4,48(sp)
    3418:	dc42                	sw	a6,56(sp)
    341a:	de46                	sw	a7,60(sp)
    341c:	81c18793          	addi	a5,gp,-2020 # 2000008c <_impure_ptr>
    3420:	cc22                	sw	s0,24(sp)
    3422:	4380                	lw	s0,0(a5)
    3424:	ca26                	sw	s1,20(sp)
    3426:	ce06                	sw	ra,28(sp)
    3428:	84aa                	mv	s1,a0
    342a:	c409                	beqz	s0,3434 <iprintf+0x28>
    342c:	4c1c                	lw	a5,24(s0)
    342e:	e399                	bnez	a5,3434 <iprintf+0x28>
    3430:	8522                	mv	a0,s0
    3432:	29fd                	jal	3930 <__sinit>
    3434:	440c                	lw	a1,8(s0)
    3436:	1054                	addi	a3,sp,36
    3438:	8626                	mv	a2,s1
    343a:	8522                	mv	a0,s0
    343c:	c636                	sw	a3,12(sp)
    343e:	151000ef          	jal	ra,3d8e <_vfiprintf_r>
    3442:	40f2                	lw	ra,28(sp)
    3444:	4462                	lw	s0,24(sp)
    3446:	44d2                	lw	s1,20(sp)
    3448:	6121                	addi	sp,sp,64
    344a:	8082                	ret

0000344c <_puts_r>:
    344c:	1101                	addi	sp,sp,-32
    344e:	ca26                	sw	s1,20(sp)
    3450:	c84a                	sw	s2,16(sp)
    3452:	ce06                	sw	ra,28(sp)
    3454:	cc22                	sw	s0,24(sp)
    3456:	c64e                	sw	s3,12(sp)
    3458:	c452                	sw	s4,8(sp)
    345a:	84aa                	mv	s1,a0
    345c:	892e                	mv	s2,a1
    345e:	c501                	beqz	a0,3466 <_puts_r+0x1a>
    3460:	4d1c                	lw	a5,24(a0)
    3462:	e391                	bnez	a5,3466 <_puts_r+0x1a>
    3464:	21f1                	jal	3930 <__sinit>
    3466:	4c9c                	lw	a5,24(s1)
    3468:	4480                	lw	s0,8(s1)
    346a:	e399                	bnez	a5,3470 <_puts_r+0x24>
    346c:	8526                	mv	a0,s1
    346e:	21c9                	jal	3930 <__sinit>
    3470:	00001797          	auipc	a5,0x1
    3474:	46c78793          	addi	a5,a5,1132 # 48dc <__sf_fake_stdin>
    3478:	02f41b63          	bne	s0,a5,34ae <_puts_r+0x62>
    347c:	40c0                	lw	s0,4(s1)
    347e:	245e                	lhu	a5,12(s0)
    3480:	8ba1                	andi	a5,a5,8
    3482:	c7b1                	beqz	a5,34ce <_puts_r+0x82>
    3484:	481c                	lw	a5,16(s0)
    3486:	c7a1                	beqz	a5,34ce <_puts_r+0x82>
    3488:	59fd                	li	s3,-1
    348a:	4a29                	li	s4,10
    348c:	441c                	lw	a5,8(s0)
    348e:	00094583          	lbu	a1,0(s2)
    3492:	17fd                	addi	a5,a5,-1
    3494:	e9b1                	bnez	a1,34e8 <_puts_r+0x9c>
    3496:	c41c                	sw	a5,8(s0)
    3498:	0607dd63          	bgez	a5,3512 <_puts_r+0xc6>
    349c:	8622                	mv	a2,s0
    349e:	45a9                	li	a1,10
    34a0:	8526                	mv	a0,s1
    34a2:	2069                	jal	352c <__swbuf_r>
    34a4:	57fd                	li	a5,-1
    34a6:	02f50863          	beq	a0,a5,34d6 <_puts_r+0x8a>
    34aa:	4529                	li	a0,10
    34ac:	a035                	j	34d8 <_puts_r+0x8c>
    34ae:	00001797          	auipc	a5,0x1
    34b2:	44e78793          	addi	a5,a5,1102 # 48fc <__sf_fake_stdout>
    34b6:	00f41463          	bne	s0,a5,34be <_puts_r+0x72>
    34ba:	4480                	lw	s0,8(s1)
    34bc:	b7c9                	j	347e <_puts_r+0x32>
    34be:	00001797          	auipc	a5,0x1
    34c2:	3fe78793          	addi	a5,a5,1022 # 48bc <__sf_fake_stderr>
    34c6:	faf41ce3          	bne	s0,a5,347e <_puts_r+0x32>
    34ca:	44c0                	lw	s0,12(s1)
    34cc:	bf4d                	j	347e <_puts_r+0x32>
    34ce:	85a2                	mv	a1,s0
    34d0:	8526                	mv	a0,s1
    34d2:	2a19                	jal	35e8 <__swsetup_r>
    34d4:	d955                	beqz	a0,3488 <_puts_r+0x3c>
    34d6:	557d                	li	a0,-1
    34d8:	40f2                	lw	ra,28(sp)
    34da:	4462                	lw	s0,24(sp)
    34dc:	44d2                	lw	s1,20(sp)
    34de:	4942                	lw	s2,16(sp)
    34e0:	49b2                	lw	s3,12(sp)
    34e2:	4a22                	lw	s4,8(sp)
    34e4:	6105                	addi	sp,sp,32
    34e6:	8082                	ret
    34e8:	c41c                	sw	a5,8(s0)
    34ea:	0905                	addi	s2,s2,1
    34ec:	0007d763          	bgez	a5,34fa <_puts_r+0xae>
    34f0:	4c18                	lw	a4,24(s0)
    34f2:	00e7ca63          	blt	a5,a4,3506 <_puts_r+0xba>
    34f6:	01458863          	beq	a1,s4,3506 <_puts_r+0xba>
    34fa:	401c                	lw	a5,0(s0)
    34fc:	00178713          	addi	a4,a5,1
    3500:	c018                	sw	a4,0(s0)
    3502:	a38c                	sb	a1,0(a5)
    3504:	b761                	j	348c <_puts_r+0x40>
    3506:	8622                	mv	a2,s0
    3508:	8526                	mv	a0,s1
    350a:	200d                	jal	352c <__swbuf_r>
    350c:	f93510e3          	bne	a0,s3,348c <_puts_r+0x40>
    3510:	b7d9                	j	34d6 <_puts_r+0x8a>
    3512:	401c                	lw	a5,0(s0)
    3514:	00178713          	addi	a4,a5,1
    3518:	c018                	sw	a4,0(s0)
    351a:	4729                	li	a4,10
    351c:	a398                	sb	a4,0(a5)
    351e:	b771                	j	34aa <_puts_r+0x5e>

00003520 <puts>:
    3520:	81c18793          	addi	a5,gp,-2020 # 2000008c <_impure_ptr>
    3524:	85aa                	mv	a1,a0
    3526:	4388                	lw	a0,0(a5)
    3528:	f25ff06f          	j	344c <_puts_r>

0000352c <__swbuf_r>:
    352c:	1101                	addi	sp,sp,-32
    352e:	cc22                	sw	s0,24(sp)
    3530:	ca26                	sw	s1,20(sp)
    3532:	c84a                	sw	s2,16(sp)
    3534:	ce06                	sw	ra,28(sp)
    3536:	c64e                	sw	s3,12(sp)
    3538:	84aa                	mv	s1,a0
    353a:	892e                	mv	s2,a1
    353c:	8432                	mv	s0,a2
    353e:	c501                	beqz	a0,3546 <__swbuf_r+0x1a>
    3540:	4d1c                	lw	a5,24(a0)
    3542:	e391                	bnez	a5,3546 <__swbuf_r+0x1a>
    3544:	26f5                	jal	3930 <__sinit>
    3546:	00001797          	auipc	a5,0x1
    354a:	39678793          	addi	a5,a5,918 # 48dc <__sf_fake_stdin>
    354e:	06f41763          	bne	s0,a5,35bc <__swbuf_r+0x90>
    3552:	40c0                	lw	s0,4(s1)
    3554:	4c1c                	lw	a5,24(s0)
    3556:	c41c                	sw	a5,8(s0)
    3558:	245e                	lhu	a5,12(s0)
    355a:	8ba1                	andi	a5,a5,8
    355c:	c3c1                	beqz	a5,35dc <__swbuf_r+0xb0>
    355e:	481c                	lw	a5,16(s0)
    3560:	cfb5                	beqz	a5,35dc <__swbuf_r+0xb0>
    3562:	481c                	lw	a5,16(s0)
    3564:	4008                	lw	a0,0(s0)
    3566:	0ff97993          	andi	s3,s2,255
    356a:	0ff97913          	andi	s2,s2,255
    356e:	8d1d                	sub	a0,a0,a5
    3570:	485c                	lw	a5,20(s0)
    3572:	00f54663          	blt	a0,a5,357e <__swbuf_r+0x52>
    3576:	85a2                	mv	a1,s0
    3578:	8526                	mv	a0,s1
    357a:	2c69                	jal	3814 <_fflush_r>
    357c:	e525                	bnez	a0,35e4 <__swbuf_r+0xb8>
    357e:	441c                	lw	a5,8(s0)
    3580:	0505                	addi	a0,a0,1
    3582:	17fd                	addi	a5,a5,-1
    3584:	c41c                	sw	a5,8(s0)
    3586:	401c                	lw	a5,0(s0)
    3588:	00178713          	addi	a4,a5,1
    358c:	c018                	sw	a4,0(s0)
    358e:	01378023          	sb	s3,0(a5)
    3592:	485c                	lw	a5,20(s0)
    3594:	00a78863          	beq	a5,a0,35a4 <__swbuf_r+0x78>
    3598:	245e                	lhu	a5,12(s0)
    359a:	8b85                	andi	a5,a5,1
    359c:	cb81                	beqz	a5,35ac <__swbuf_r+0x80>
    359e:	47a9                	li	a5,10
    35a0:	00f91663          	bne	s2,a5,35ac <__swbuf_r+0x80>
    35a4:	85a2                	mv	a1,s0
    35a6:	8526                	mv	a0,s1
    35a8:	24b5                	jal	3814 <_fflush_r>
    35aa:	ed0d                	bnez	a0,35e4 <__swbuf_r+0xb8>
    35ac:	40f2                	lw	ra,28(sp)
    35ae:	4462                	lw	s0,24(sp)
    35b0:	854a                	mv	a0,s2
    35b2:	44d2                	lw	s1,20(sp)
    35b4:	4942                	lw	s2,16(sp)
    35b6:	49b2                	lw	s3,12(sp)
    35b8:	6105                	addi	sp,sp,32
    35ba:	8082                	ret
    35bc:	00001797          	auipc	a5,0x1
    35c0:	34078793          	addi	a5,a5,832 # 48fc <__sf_fake_stdout>
    35c4:	00f41463          	bne	s0,a5,35cc <__swbuf_r+0xa0>
    35c8:	4480                	lw	s0,8(s1)
    35ca:	b769                	j	3554 <__swbuf_r+0x28>
    35cc:	00001797          	auipc	a5,0x1
    35d0:	2f078793          	addi	a5,a5,752 # 48bc <__sf_fake_stderr>
    35d4:	f8f410e3          	bne	s0,a5,3554 <__swbuf_r+0x28>
    35d8:	44c0                	lw	s0,12(s1)
    35da:	bfad                	j	3554 <__swbuf_r+0x28>
    35dc:	85a2                	mv	a1,s0
    35de:	8526                	mv	a0,s1
    35e0:	2021                	jal	35e8 <__swsetup_r>
    35e2:	d141                	beqz	a0,3562 <__swbuf_r+0x36>
    35e4:	597d                	li	s2,-1
    35e6:	b7d9                	j	35ac <__swbuf_r+0x80>

000035e8 <__swsetup_r>:
    35e8:	1141                	addi	sp,sp,-16
    35ea:	81c18793          	addi	a5,gp,-2020 # 2000008c <_impure_ptr>
    35ee:	c226                	sw	s1,4(sp)
    35f0:	4384                	lw	s1,0(a5)
    35f2:	c422                	sw	s0,8(sp)
    35f4:	c04a                	sw	s2,0(sp)
    35f6:	c606                	sw	ra,12(sp)
    35f8:	892a                	mv	s2,a0
    35fa:	842e                	mv	s0,a1
    35fc:	c489                	beqz	s1,3606 <__swsetup_r+0x1e>
    35fe:	4c9c                	lw	a5,24(s1)
    3600:	e399                	bnez	a5,3606 <__swsetup_r+0x1e>
    3602:	8526                	mv	a0,s1
    3604:	2635                	jal	3930 <__sinit>
    3606:	00001797          	auipc	a5,0x1
    360a:	2d678793          	addi	a5,a5,726 # 48dc <__sf_fake_stdin>
    360e:	02f41b63          	bne	s0,a5,3644 <__swsetup_r+0x5c>
    3612:	40c0                	lw	s0,4(s1)
    3614:	00c41703          	lh	a4,12(s0)
    3618:	01071793          	slli	a5,a4,0x10
    361c:	83c1                	srli	a5,a5,0x10
    361e:	0087f693          	andi	a3,a5,8
    3622:	eaad                	bnez	a3,3694 <__swsetup_r+0xac>
    3624:	0107f693          	andi	a3,a5,16
    3628:	ee95                	bnez	a3,3664 <__swsetup_r+0x7c>
    362a:	47a5                	li	a5,9
    362c:	00f92023          	sw	a5,0(s2)
    3630:	04076713          	ori	a4,a4,64
    3634:	a45a                	sh	a4,12(s0)
    3636:	557d                	li	a0,-1
    3638:	40b2                	lw	ra,12(sp)
    363a:	4422                	lw	s0,8(sp)
    363c:	4492                	lw	s1,4(sp)
    363e:	4902                	lw	s2,0(sp)
    3640:	0141                	addi	sp,sp,16
    3642:	8082                	ret
    3644:	00001797          	auipc	a5,0x1
    3648:	2b878793          	addi	a5,a5,696 # 48fc <__sf_fake_stdout>
    364c:	00f41463          	bne	s0,a5,3654 <__swsetup_r+0x6c>
    3650:	4480                	lw	s0,8(s1)
    3652:	b7c9                	j	3614 <__swsetup_r+0x2c>
    3654:	00001797          	auipc	a5,0x1
    3658:	26878793          	addi	a5,a5,616 # 48bc <__sf_fake_stderr>
    365c:	faf41ce3          	bne	s0,a5,3614 <__swsetup_r+0x2c>
    3660:	44c0                	lw	s0,12(s1)
    3662:	bf4d                	j	3614 <__swsetup_r+0x2c>
    3664:	8b91                	andi	a5,a5,4
    3666:	c39d                	beqz	a5,368c <__swsetup_r+0xa4>
    3668:	584c                	lw	a1,52(s0)
    366a:	c989                	beqz	a1,367c <__swsetup_r+0x94>
    366c:	04440793          	addi	a5,s0,68
    3670:	00f58463          	beq	a1,a5,3678 <__swsetup_r+0x90>
    3674:	854a                	mv	a0,s2
    3676:	2b29                	jal	3b90 <_free_r>
    3678:	02042a23          	sw	zero,52(s0)
    367c:	245e                	lhu	a5,12(s0)
    367e:	00042223          	sw	zero,4(s0)
    3682:	fdb7f793          	andi	a5,a5,-37
    3686:	a45e                	sh	a5,12(s0)
    3688:	481c                	lw	a5,16(s0)
    368a:	c01c                	sw	a5,0(s0)
    368c:	245e                	lhu	a5,12(s0)
    368e:	0087e793          	ori	a5,a5,8
    3692:	a45e                	sh	a5,12(s0)
    3694:	481c                	lw	a5,16(s0)
    3696:	eb99                	bnez	a5,36ac <__swsetup_r+0xc4>
    3698:	245e                	lhu	a5,12(s0)
    369a:	20000713          	li	a4,512
    369e:	2807f793          	andi	a5,a5,640
    36a2:	00e78563          	beq	a5,a4,36ac <__swsetup_r+0xc4>
    36a6:	85a2                	mv	a1,s0
    36a8:	854a                	mv	a0,s2
    36aa:	2991                	jal	3afe <__smakebuf_r>
    36ac:	245e                	lhu	a5,12(s0)
    36ae:	0017f713          	andi	a4,a5,1
    36b2:	c31d                	beqz	a4,36d8 <__swsetup_r+0xf0>
    36b4:	485c                	lw	a5,20(s0)
    36b6:	00042423          	sw	zero,8(s0)
    36ba:	40f007b3          	neg	a5,a5
    36be:	cc1c                	sw	a5,24(s0)
    36c0:	481c                	lw	a5,16(s0)
    36c2:	4501                	li	a0,0
    36c4:	fbb5                	bnez	a5,3638 <__swsetup_r+0x50>
    36c6:	00c41783          	lh	a5,12(s0)
    36ca:	0807f713          	andi	a4,a5,128
    36ce:	d72d                	beqz	a4,3638 <__swsetup_r+0x50>
    36d0:	0407e793          	ori	a5,a5,64
    36d4:	a45e                	sh	a5,12(s0)
    36d6:	b785                	j	3636 <__swsetup_r+0x4e>
    36d8:	8b89                	andi	a5,a5,2
    36da:	4701                	li	a4,0
    36dc:	e391                	bnez	a5,36e0 <__swsetup_r+0xf8>
    36de:	4858                	lw	a4,20(s0)
    36e0:	c418                	sw	a4,8(s0)
    36e2:	bff9                	j	36c0 <__swsetup_r+0xd8>

000036e4 <__sflush_r>:
    36e4:	25de                	lhu	a5,12(a1)
    36e6:	1101                	addi	sp,sp,-32
    36e8:	cc22                	sw	s0,24(sp)
    36ea:	ca26                	sw	s1,20(sp)
    36ec:	ce06                	sw	ra,28(sp)
    36ee:	c84a                	sw	s2,16(sp)
    36f0:	c64e                	sw	s3,12(sp)
    36f2:	0087f713          	andi	a4,a5,8
    36f6:	84aa                	mv	s1,a0
    36f8:	842e                	mv	s0,a1
    36fa:	eb79                	bnez	a4,37d0 <__sflush_r+0xec>
    36fc:	41d8                	lw	a4,4(a1)
    36fe:	00e04d63          	bgtz	a4,3718 <__sflush_r+0x34>
    3702:	41b8                	lw	a4,64(a1)
    3704:	00e04a63          	bgtz	a4,3718 <__sflush_r+0x34>
    3708:	4501                	li	a0,0
    370a:	40f2                	lw	ra,28(sp)
    370c:	4462                	lw	s0,24(sp)
    370e:	44d2                	lw	s1,20(sp)
    3710:	4942                	lw	s2,16(sp)
    3712:	49b2                	lw	s3,12(sp)
    3714:	6105                	addi	sp,sp,32
    3716:	8082                	ret
    3718:	5458                	lw	a4,44(s0)
    371a:	d77d                	beqz	a4,3708 <__sflush_r+0x24>
    371c:	0004a903          	lw	s2,0(s1)
    3720:	01379693          	slli	a3,a5,0x13
    3724:	0004a023          	sw	zero,0(s1)
    3728:	0606db63          	bgez	a3,379e <__sflush_r+0xba>
    372c:	4870                	lw	a2,84(s0)
    372e:	245e                	lhu	a5,12(s0)
    3730:	8b91                	andi	a5,a5,4
    3732:	c799                	beqz	a5,3740 <__sflush_r+0x5c>
    3734:	405c                	lw	a5,4(s0)
    3736:	8e1d                	sub	a2,a2,a5
    3738:	585c                	lw	a5,52(s0)
    373a:	c399                	beqz	a5,3740 <__sflush_r+0x5c>
    373c:	403c                	lw	a5,64(s0)
    373e:	8e1d                	sub	a2,a2,a5
    3740:	545c                	lw	a5,44(s0)
    3742:	500c                	lw	a1,32(s0)
    3744:	4681                	li	a3,0
    3746:	8526                	mv	a0,s1
    3748:	9782                	jalr	a5
    374a:	57fd                	li	a5,-1
    374c:	245a                	lhu	a4,12(s0)
    374e:	00f51d63          	bne	a0,a5,3768 <__sflush_r+0x84>
    3752:	4094                	lw	a3,0(s1)
    3754:	47f5                	li	a5,29
    3756:	06d7e863          	bltu	a5,a3,37c6 <__sflush_r+0xe2>
    375a:	204007b7          	lui	a5,0x20400
    375e:	0785                	addi	a5,a5,1
    3760:	00d7d7b3          	srl	a5,a5,a3
    3764:	8b85                	andi	a5,a5,1
    3766:	c3a5                	beqz	a5,37c6 <__sflush_r+0xe2>
    3768:	481c                	lw	a5,16(s0)
    376a:	00042223          	sw	zero,4(s0)
    376e:	c01c                	sw	a5,0(s0)
    3770:	01371793          	slli	a5,a4,0x13
    3774:	0007d863          	bgez	a5,3784 <__sflush_r+0xa0>
    3778:	57fd                	li	a5,-1
    377a:	00f51463          	bne	a0,a5,3782 <__sflush_r+0x9e>
    377e:	409c                	lw	a5,0(s1)
    3780:	e391                	bnez	a5,3784 <__sflush_r+0xa0>
    3782:	c868                	sw	a0,84(s0)
    3784:	584c                	lw	a1,52(s0)
    3786:	0124a023          	sw	s2,0(s1)
    378a:	ddbd                	beqz	a1,3708 <__sflush_r+0x24>
    378c:	04440793          	addi	a5,s0,68
    3790:	00f58463          	beq	a1,a5,3798 <__sflush_r+0xb4>
    3794:	8526                	mv	a0,s1
    3796:	2eed                	jal	3b90 <_free_r>
    3798:	02042a23          	sw	zero,52(s0)
    379c:	b7b5                	j	3708 <__sflush_r+0x24>
    379e:	500c                	lw	a1,32(s0)
    37a0:	4601                	li	a2,0
    37a2:	4685                	li	a3,1
    37a4:	8526                	mv	a0,s1
    37a6:	9702                	jalr	a4
    37a8:	57fd                	li	a5,-1
    37aa:	862a                	mv	a2,a0
    37ac:	f8f511e3          	bne	a0,a5,372e <__sflush_r+0x4a>
    37b0:	409c                	lw	a5,0(s1)
    37b2:	dfb5                	beqz	a5,372e <__sflush_r+0x4a>
    37b4:	4775                	li	a4,29
    37b6:	00e78563          	beq	a5,a4,37c0 <__sflush_r+0xdc>
    37ba:	4759                	li	a4,22
    37bc:	04e79363          	bne	a5,a4,3802 <__sflush_r+0x11e>
    37c0:	0124a023          	sw	s2,0(s1)
    37c4:	b791                	j	3708 <__sflush_r+0x24>
    37c6:	04076713          	ori	a4,a4,64
    37ca:	a45a                	sh	a4,12(s0)
    37cc:	557d                	li	a0,-1
    37ce:	bf35                	j	370a <__sflush_r+0x26>
    37d0:	0105a983          	lw	s3,16(a1)
    37d4:	f2098ae3          	beqz	s3,3708 <__sflush_r+0x24>
    37d8:	0005a903          	lw	s2,0(a1)
    37dc:	8b8d                	andi	a5,a5,3
    37de:	0135a023          	sw	s3,0(a1)
    37e2:	41390933          	sub	s2,s2,s3
    37e6:	4701                	li	a4,0
    37e8:	e391                	bnez	a5,37ec <__sflush_r+0x108>
    37ea:	49d8                	lw	a4,20(a1)
    37ec:	c418                	sw	a4,8(s0)
    37ee:	f1205de3          	blez	s2,3708 <__sflush_r+0x24>
    37f2:	541c                	lw	a5,40(s0)
    37f4:	500c                	lw	a1,32(s0)
    37f6:	86ca                	mv	a3,s2
    37f8:	864e                	mv	a2,s3
    37fa:	8526                	mv	a0,s1
    37fc:	9782                	jalr	a5
    37fe:	00a04763          	bgtz	a0,380c <__sflush_r+0x128>
    3802:	245e                	lhu	a5,12(s0)
    3804:	0407e793          	ori	a5,a5,64
    3808:	a45e                	sh	a5,12(s0)
    380a:	b7c9                	j	37cc <__sflush_r+0xe8>
    380c:	99aa                	add	s3,s3,a0
    380e:	40a90933          	sub	s2,s2,a0
    3812:	bff1                	j	37ee <__sflush_r+0x10a>

00003814 <_fflush_r>:
    3814:	499c                	lw	a5,16(a1)
    3816:	c3a5                	beqz	a5,3876 <_fflush_r+0x62>
    3818:	1101                	addi	sp,sp,-32
    381a:	cc22                	sw	s0,24(sp)
    381c:	ce06                	sw	ra,28(sp)
    381e:	842a                	mv	s0,a0
    3820:	c511                	beqz	a0,382c <_fflush_r+0x18>
    3822:	4d1c                	lw	a5,24(a0)
    3824:	e781                	bnez	a5,382c <_fflush_r+0x18>
    3826:	c62e                	sw	a1,12(sp)
    3828:	2221                	jal	3930 <__sinit>
    382a:	45b2                	lw	a1,12(sp)
    382c:	00001797          	auipc	a5,0x1
    3830:	0b078793          	addi	a5,a5,176 # 48dc <__sf_fake_stdin>
    3834:	00f59c63          	bne	a1,a5,384c <_fflush_r+0x38>
    3838:	404c                	lw	a1,4(s0)
    383a:	00c59783          	lh	a5,12(a1)
    383e:	c79d                	beqz	a5,386c <_fflush_r+0x58>
    3840:	8522                	mv	a0,s0
    3842:	4462                	lw	s0,24(sp)
    3844:	40f2                	lw	ra,28(sp)
    3846:	6105                	addi	sp,sp,32
    3848:	e9dff06f          	j	36e4 <__sflush_r>
    384c:	00001797          	auipc	a5,0x1
    3850:	0b078793          	addi	a5,a5,176 # 48fc <__sf_fake_stdout>
    3854:	00f59463          	bne	a1,a5,385c <_fflush_r+0x48>
    3858:	440c                	lw	a1,8(s0)
    385a:	b7c5                	j	383a <_fflush_r+0x26>
    385c:	00001797          	auipc	a5,0x1
    3860:	06078793          	addi	a5,a5,96 # 48bc <__sf_fake_stderr>
    3864:	fcf59be3          	bne	a1,a5,383a <_fflush_r+0x26>
    3868:	444c                	lw	a1,12(s0)
    386a:	bfc1                	j	383a <_fflush_r+0x26>
    386c:	40f2                	lw	ra,28(sp)
    386e:	4462                	lw	s0,24(sp)
    3870:	4501                	li	a0,0
    3872:	6105                	addi	sp,sp,32
    3874:	8082                	ret
    3876:	4501                	li	a0,0
    3878:	8082                	ret

0000387a <std>:
    387a:	1141                	addi	sp,sp,-16
    387c:	c422                	sw	s0,8(sp)
    387e:	c606                	sw	ra,12(sp)
    3880:	842a                	mv	s0,a0
    3882:	a54e                	sh	a1,12(a0)
    3884:	a572                	sh	a2,14(a0)
    3886:	00052023          	sw	zero,0(a0)
    388a:	00052223          	sw	zero,4(a0)
    388e:	00052423          	sw	zero,8(a0)
    3892:	06052223          	sw	zero,100(a0)
    3896:	00052823          	sw	zero,16(a0)
    389a:	00052a23          	sw	zero,20(a0)
    389e:	00052c23          	sw	zero,24(a0)
    38a2:	4621                	li	a2,8
    38a4:	4581                	li	a1,0
    38a6:	05c50513          	addi	a0,a0,92
    38aa:	ba5fc0ef          	jal	ra,44e <memset>
    38ae:	00001797          	auipc	a5,0x1
    38b2:	b4878793          	addi	a5,a5,-1208 # 43f6 <__sread>
    38b6:	d05c                	sw	a5,36(s0)
    38b8:	00001797          	auipc	a5,0x1
    38bc:	b6a78793          	addi	a5,a5,-1174 # 4422 <__swrite>
    38c0:	d41c                	sw	a5,40(s0)
    38c2:	00001797          	auipc	a5,0x1
    38c6:	ba878793          	addi	a5,a5,-1112 # 446a <__sseek>
    38ca:	d45c                	sw	a5,44(s0)
    38cc:	00001797          	auipc	a5,0x1
    38d0:	bce78793          	addi	a5,a5,-1074 # 449a <__sclose>
    38d4:	d000                	sw	s0,32(s0)
    38d6:	d81c                	sw	a5,48(s0)
    38d8:	40b2                	lw	ra,12(sp)
    38da:	4422                	lw	s0,8(sp)
    38dc:	0141                	addi	sp,sp,16
    38de:	8082                	ret

000038e0 <_cleanup_r>:
    38e0:	00000597          	auipc	a1,0x0
    38e4:	f3458593          	addi	a1,a1,-204 # 3814 <_fflush_r>
    38e8:	aa91                	j	3a3c <_fwalk_reent>

000038ea <__sfmoreglue>:
    38ea:	1141                	addi	sp,sp,-16
    38ec:	c226                	sw	s1,4(sp)
    38ee:	06800613          	li	a2,104
    38f2:	fff58493          	addi	s1,a1,-1
    38f6:	02c484b3          	mul	s1,s1,a2
    38fa:	c04a                	sw	s2,0(sp)
    38fc:	892e                	mv	s2,a1
    38fe:	c422                	sw	s0,8(sp)
    3900:	c606                	sw	ra,12(sp)
    3902:	07448593          	addi	a1,s1,116
    3906:	2e2d                	jal	3c40 <_malloc_r>
    3908:	842a                	mv	s0,a0
    390a:	cd01                	beqz	a0,3922 <__sfmoreglue+0x38>
    390c:	00052023          	sw	zero,0(a0)
    3910:	01252223          	sw	s2,4(a0)
    3914:	0531                	addi	a0,a0,12
    3916:	c408                	sw	a0,8(s0)
    3918:	06848613          	addi	a2,s1,104
    391c:	4581                	li	a1,0
    391e:	b31fc0ef          	jal	ra,44e <memset>
    3922:	8522                	mv	a0,s0
    3924:	40b2                	lw	ra,12(sp)
    3926:	4422                	lw	s0,8(sp)
    3928:	4492                	lw	s1,4(sp)
    392a:	4902                	lw	s2,0(sp)
    392c:	0141                	addi	sp,sp,16
    392e:	8082                	ret

00003930 <__sinit>:
    3930:	4d1c                	lw	a5,24(a0)
    3932:	e7a5                	bnez	a5,399a <__sinit+0x6a>
    3934:	1141                	addi	sp,sp,-16
    3936:	c606                	sw	ra,12(sp)
    3938:	c422                	sw	s0,8(sp)
    393a:	00000797          	auipc	a5,0x0
    393e:	fa678793          	addi	a5,a5,-90 # 38e0 <_cleanup_r>
    3942:	d51c                	sw	a5,40(a0)
    3944:	83018793          	addi	a5,gp,-2000 # 200000a0 <_global_impure_ptr>
    3948:	439c                	lw	a5,0(a5)
    394a:	04052423          	sw	zero,72(a0)
    394e:	04052623          	sw	zero,76(a0)
    3952:	04052823          	sw	zero,80(a0)
    3956:	00f51463          	bne	a0,a5,395e <__sinit+0x2e>
    395a:	4785                	li	a5,1
    395c:	cd1c                	sw	a5,24(a0)
    395e:	842a                	mv	s0,a0
    3960:	2835                	jal	399c <__sfp>
    3962:	c048                	sw	a0,4(s0)
    3964:	8522                	mv	a0,s0
    3966:	281d                	jal	399c <__sfp>
    3968:	c408                	sw	a0,8(s0)
    396a:	8522                	mv	a0,s0
    396c:	2805                	jal	399c <__sfp>
    396e:	c448                	sw	a0,12(s0)
    3970:	4048                	lw	a0,4(s0)
    3972:	4601                	li	a2,0
    3974:	4591                	li	a1,4
    3976:	f05ff0ef          	jal	ra,387a <std>
    397a:	4408                	lw	a0,8(s0)
    397c:	4605                	li	a2,1
    397e:	45a5                	li	a1,9
    3980:	efbff0ef          	jal	ra,387a <std>
    3984:	4448                	lw	a0,12(s0)
    3986:	4609                	li	a2,2
    3988:	45c9                	li	a1,18
    398a:	ef1ff0ef          	jal	ra,387a <std>
    398e:	4785                	li	a5,1
    3990:	cc1c                	sw	a5,24(s0)
    3992:	40b2                	lw	ra,12(sp)
    3994:	4422                	lw	s0,8(sp)
    3996:	0141                	addi	sp,sp,16
    3998:	8082                	ret
    399a:	8082                	ret

0000399c <__sfp>:
    399c:	1141                	addi	sp,sp,-16
    399e:	83018793          	addi	a5,gp,-2000 # 200000a0 <_global_impure_ptr>
    39a2:	c226                	sw	s1,4(sp)
    39a4:	4384                	lw	s1,0(a5)
    39a6:	c04a                	sw	s2,0(sp)
    39a8:	c606                	sw	ra,12(sp)
    39aa:	4c9c                	lw	a5,24(s1)
    39ac:	c422                	sw	s0,8(sp)
    39ae:	892a                	mv	s2,a0
    39b0:	e781                	bnez	a5,39b8 <__sfp+0x1c>
    39b2:	8526                	mv	a0,s1
    39b4:	f7dff0ef          	jal	ra,3930 <__sinit>
    39b8:	04848493          	addi	s1,s1,72
    39bc:	4480                	lw	s0,8(s1)
    39be:	40dc                	lw	a5,4(s1)
    39c0:	17fd                	addi	a5,a5,-1
    39c2:	0007d663          	bgez	a5,39ce <__sfp+0x32>
    39c6:	409c                	lw	a5,0(s1)
    39c8:	cfb9                	beqz	a5,3a26 <__sfp+0x8a>
    39ca:	4084                	lw	s1,0(s1)
    39cc:	bfc5                	j	39bc <__sfp+0x20>
    39ce:	00c41703          	lh	a4,12(s0)
    39d2:	e739                	bnez	a4,3a20 <__sfp+0x84>
    39d4:	77c1                	lui	a5,0xffff0
    39d6:	0785                	addi	a5,a5,1
    39d8:	06042223          	sw	zero,100(s0)
    39dc:	00042023          	sw	zero,0(s0)
    39e0:	00042223          	sw	zero,4(s0)
    39e4:	00042423          	sw	zero,8(s0)
    39e8:	c45c                	sw	a5,12(s0)
    39ea:	00042823          	sw	zero,16(s0)
    39ee:	00042a23          	sw	zero,20(s0)
    39f2:	00042c23          	sw	zero,24(s0)
    39f6:	4621                	li	a2,8
    39f8:	4581                	li	a1,0
    39fa:	05c40513          	addi	a0,s0,92
    39fe:	a51fc0ef          	jal	ra,44e <memset>
    3a02:	02042a23          	sw	zero,52(s0)
    3a06:	02042c23          	sw	zero,56(s0)
    3a0a:	04042423          	sw	zero,72(s0)
    3a0e:	04042623          	sw	zero,76(s0)
    3a12:	8522                	mv	a0,s0
    3a14:	40b2                	lw	ra,12(sp)
    3a16:	4422                	lw	s0,8(sp)
    3a18:	4492                	lw	s1,4(sp)
    3a1a:	4902                	lw	s2,0(sp)
    3a1c:	0141                	addi	sp,sp,16
    3a1e:	8082                	ret
    3a20:	06840413          	addi	s0,s0,104
    3a24:	bf71                	j	39c0 <__sfp+0x24>
    3a26:	4591                	li	a1,4
    3a28:	854a                	mv	a0,s2
    3a2a:	ec1ff0ef          	jal	ra,38ea <__sfmoreglue>
    3a2e:	c088                	sw	a0,0(s1)
    3a30:	fd49                	bnez	a0,39ca <__sfp+0x2e>
    3a32:	47b1                	li	a5,12
    3a34:	00f92023          	sw	a5,0(s2)
    3a38:	4401                	li	s0,0
    3a3a:	bfe1                	j	3a12 <__sfp+0x76>

00003a3c <_fwalk_reent>:
    3a3c:	7179                	addi	sp,sp,-48
    3a3e:	d422                	sw	s0,40(sp)
    3a40:	d04a                	sw	s2,32(sp)
    3a42:	cc52                	sw	s4,24(sp)
    3a44:	ca56                	sw	s5,20(sp)
    3a46:	c85a                	sw	s6,16(sp)
    3a48:	c65e                	sw	s7,12(sp)
    3a4a:	d606                	sw	ra,44(sp)
    3a4c:	d226                	sw	s1,36(sp)
    3a4e:	ce4e                	sw	s3,28(sp)
    3a50:	8a2a                	mv	s4,a0
    3a52:	8aae                	mv	s5,a1
    3a54:	04850413          	addi	s0,a0,72
    3a58:	4901                	li	s2,0
    3a5a:	4b05                	li	s6,1
    3a5c:	5bfd                	li	s7,-1
    3a5e:	ec09                	bnez	s0,3a78 <_fwalk_reent+0x3c>
    3a60:	50b2                	lw	ra,44(sp)
    3a62:	5422                	lw	s0,40(sp)
    3a64:	854a                	mv	a0,s2
    3a66:	5492                	lw	s1,36(sp)
    3a68:	5902                	lw	s2,32(sp)
    3a6a:	49f2                	lw	s3,28(sp)
    3a6c:	4a62                	lw	s4,24(sp)
    3a6e:	4ad2                	lw	s5,20(sp)
    3a70:	4b42                	lw	s6,16(sp)
    3a72:	4bb2                	lw	s7,12(sp)
    3a74:	6145                	addi	sp,sp,48
    3a76:	8082                	ret
    3a78:	4404                	lw	s1,8(s0)
    3a7a:	00442983          	lw	s3,4(s0)
    3a7e:	19fd                	addi	s3,s3,-1
    3a80:	0009d463          	bgez	s3,3a88 <_fwalk_reent+0x4c>
    3a84:	4000                	lw	s0,0(s0)
    3a86:	bfe1                	j	3a5e <_fwalk_reent+0x22>
    3a88:	24de                	lhu	a5,12(s1)
    3a8a:	00fb7b63          	bgeu	s6,a5,3aa0 <_fwalk_reent+0x64>
    3a8e:	00e49783          	lh	a5,14(s1)
    3a92:	01778763          	beq	a5,s7,3aa0 <_fwalk_reent+0x64>
    3a96:	85a6                	mv	a1,s1
    3a98:	8552                	mv	a0,s4
    3a9a:	9a82                	jalr	s5
    3a9c:	00a96933          	or	s2,s2,a0
    3aa0:	06848493          	addi	s1,s1,104
    3aa4:	bfe9                	j	3a7e <_fwalk_reent+0x42>

00003aa6 <__swhatbuf_r>:
    3aa6:	7119                	addi	sp,sp,-128
    3aa8:	daa6                	sw	s1,116(sp)
    3aaa:	84ae                	mv	s1,a1
    3aac:	00e59583          	lh	a1,14(a1)
    3ab0:	dca2                	sw	s0,120(sp)
    3ab2:	de86                	sw	ra,124(sp)
    3ab4:	8432                	mv	s0,a2
    3ab6:	0005db63          	bgez	a1,3acc <__swhatbuf_r+0x26>
    3aba:	24de                	lhu	a5,12(s1)
    3abc:	0006a023          	sw	zero,0(a3)
    3ac0:	0807f793          	andi	a5,a5,128
    3ac4:	e785                	bnez	a5,3aec <__swhatbuf_r+0x46>
    3ac6:	40000793          	li	a5,1024
    3aca:	a01d                	j	3af0 <__swhatbuf_r+0x4a>
    3acc:	0830                	addi	a2,sp,24
    3ace:	c636                	sw	a3,12(sp)
    3ad0:	237000ef          	jal	ra,4506 <_fstat_r>
    3ad4:	46b2                	lw	a3,12(sp)
    3ad6:	fe0542e3          	bltz	a0,3aba <__swhatbuf_r+0x14>
    3ada:	4772                	lw	a4,28(sp)
    3adc:	67bd                	lui	a5,0xf
    3ade:	8ff9                	and	a5,a5,a4
    3ae0:	7779                	lui	a4,0xffffe
    3ae2:	97ba                	add	a5,a5,a4
    3ae4:	0017b793          	seqz	a5,a5
    3ae8:	c29c                	sw	a5,0(a3)
    3aea:	bff1                	j	3ac6 <__swhatbuf_r+0x20>
    3aec:	04000793          	li	a5,64
    3af0:	c01c                	sw	a5,0(s0)
    3af2:	50f6                	lw	ra,124(sp)
    3af4:	5466                	lw	s0,120(sp)
    3af6:	54d6                	lw	s1,116(sp)
    3af8:	4501                	li	a0,0
    3afa:	6109                	addi	sp,sp,128
    3afc:	8082                	ret

00003afe <__smakebuf_r>:
    3afe:	25de                	lhu	a5,12(a1)
    3b00:	1101                	addi	sp,sp,-32
    3b02:	cc22                	sw	s0,24(sp)
    3b04:	ce06                	sw	ra,28(sp)
    3b06:	ca26                	sw	s1,20(sp)
    3b08:	c84a                	sw	s2,16(sp)
    3b0a:	8b89                	andi	a5,a5,2
    3b0c:	842e                	mv	s0,a1
    3b0e:	cf89                	beqz	a5,3b28 <__smakebuf_r+0x2a>
    3b10:	04740793          	addi	a5,s0,71
    3b14:	c01c                	sw	a5,0(s0)
    3b16:	c81c                	sw	a5,16(s0)
    3b18:	4785                	li	a5,1
    3b1a:	c85c                	sw	a5,20(s0)
    3b1c:	40f2                	lw	ra,28(sp)
    3b1e:	4462                	lw	s0,24(sp)
    3b20:	44d2                	lw	s1,20(sp)
    3b22:	4942                	lw	s2,16(sp)
    3b24:	6105                	addi	sp,sp,32
    3b26:	8082                	ret
    3b28:	0074                	addi	a3,sp,12
    3b2a:	0030                	addi	a2,sp,8
    3b2c:	84aa                	mv	s1,a0
    3b2e:	f79ff0ef          	jal	ra,3aa6 <__swhatbuf_r>
    3b32:	45a2                	lw	a1,8(sp)
    3b34:	892a                	mv	s2,a0
    3b36:	8526                	mv	a0,s1
    3b38:	2221                	jal	3c40 <_malloc_r>
    3b3a:	e919                	bnez	a0,3b50 <__smakebuf_r+0x52>
    3b3c:	00c41783          	lh	a5,12(s0)
    3b40:	2007f713          	andi	a4,a5,512
    3b44:	ff61                	bnez	a4,3b1c <__smakebuf_r+0x1e>
    3b46:	9bf1                	andi	a5,a5,-4
    3b48:	0027e793          	ori	a5,a5,2
    3b4c:	a45e                	sh	a5,12(s0)
    3b4e:	b7c9                	j	3b10 <__smakebuf_r+0x12>
    3b50:	00000797          	auipc	a5,0x0
    3b54:	d9078793          	addi	a5,a5,-624 # 38e0 <_cleanup_r>
    3b58:	d49c                	sw	a5,40(s1)
    3b5a:	245e                	lhu	a5,12(s0)
    3b5c:	c008                	sw	a0,0(s0)
    3b5e:	c808                	sw	a0,16(s0)
    3b60:	0807e793          	ori	a5,a5,128
    3b64:	a45e                	sh	a5,12(s0)
    3b66:	47a2                	lw	a5,8(sp)
    3b68:	c85c                	sw	a5,20(s0)
    3b6a:	47b2                	lw	a5,12(sp)
    3b6c:	cf81                	beqz	a5,3b84 <__smakebuf_r+0x86>
    3b6e:	00e41583          	lh	a1,14(s0)
    3b72:	8526                	mv	a0,s1
    3b74:	1c5000ef          	jal	ra,4538 <_isatty_r>
    3b78:	c511                	beqz	a0,3b84 <__smakebuf_r+0x86>
    3b7a:	245e                	lhu	a5,12(s0)
    3b7c:	9bf1                	andi	a5,a5,-4
    3b7e:	0017e793          	ori	a5,a5,1
    3b82:	a45e                	sh	a5,12(s0)
    3b84:	245e                	lhu	a5,12(s0)
    3b86:	00f96933          	or	s2,s2,a5
    3b8a:	01241623          	sh	s2,12(s0)
    3b8e:	b779                	j	3b1c <__smakebuf_r+0x1e>

00003b90 <_free_r>:
    3b90:	c5dd                	beqz	a1,3c3e <_free_r+0xae>
    3b92:	ffc5a783          	lw	a5,-4(a1)
    3b96:	1141                	addi	sp,sp,-16
    3b98:	c422                	sw	s0,8(sp)
    3b9a:	c606                	sw	ra,12(sp)
    3b9c:	c226                	sw	s1,4(sp)
    3b9e:	ffc58413          	addi	s0,a1,-4
    3ba2:	0007d363          	bgez	a5,3ba8 <_free_r+0x18>
    3ba6:	943e                	add	s0,s0,a5
    3ba8:	84aa                	mv	s1,a0
    3baa:	20b000ef          	jal	ra,45b4 <__malloc_lock>
    3bae:	1fffc797          	auipc	a5,0x1fffc
    3bb2:	59678793          	addi	a5,a5,1430 # 20000144 <__malloc_free_list>
    3bb6:	439c                	lw	a5,0(a5)
    3bb8:	ef91                	bnez	a5,3bd4 <_free_r+0x44>
    3bba:	00042223          	sw	zero,4(s0)
    3bbe:	1fffc797          	auipc	a5,0x1fffc
    3bc2:	5887a323          	sw	s0,1414(a5) # 20000144 <__malloc_free_list>
    3bc6:	4422                	lw	s0,8(sp)
    3bc8:	40b2                	lw	ra,12(sp)
    3bca:	8526                	mv	a0,s1
    3bcc:	4492                	lw	s1,4(sp)
    3bce:	0141                	addi	sp,sp,16
    3bd0:	1e70006f          	j	45b6 <__malloc_unlock>
    3bd4:	00f47e63          	bgeu	s0,a5,3bf0 <_free_r+0x60>
    3bd8:	4014                	lw	a3,0(s0)
    3bda:	00d40733          	add	a4,s0,a3
    3bde:	00e79663          	bne	a5,a4,3bea <_free_r+0x5a>
    3be2:	4398                	lw	a4,0(a5)
    3be4:	43dc                	lw	a5,4(a5)
    3be6:	9736                	add	a4,a4,a3
    3be8:	c018                	sw	a4,0(s0)
    3bea:	c05c                	sw	a5,4(s0)
    3bec:	bfc9                	j	3bbe <_free_r+0x2e>
    3bee:	87ba                	mv	a5,a4
    3bf0:	43d8                	lw	a4,4(a5)
    3bf2:	c319                	beqz	a4,3bf8 <_free_r+0x68>
    3bf4:	fee47de3          	bgeu	s0,a4,3bee <_free_r+0x5e>
    3bf8:	4394                	lw	a3,0(a5)
    3bfa:	00d78633          	add	a2,a5,a3
    3bfe:	00861f63          	bne	a2,s0,3c1c <_free_r+0x8c>
    3c02:	4010                	lw	a2,0(s0)
    3c04:	96b2                	add	a3,a3,a2
    3c06:	c394                	sw	a3,0(a5)
    3c08:	00d78633          	add	a2,a5,a3
    3c0c:	fac71de3          	bne	a4,a2,3bc6 <_free_r+0x36>
    3c10:	4310                	lw	a2,0(a4)
    3c12:	4358                	lw	a4,4(a4)
    3c14:	96b2                	add	a3,a3,a2
    3c16:	c394                	sw	a3,0(a5)
    3c18:	c3d8                	sw	a4,4(a5)
    3c1a:	b775                	j	3bc6 <_free_r+0x36>
    3c1c:	00c47563          	bgeu	s0,a2,3c26 <_free_r+0x96>
    3c20:	47b1                	li	a5,12
    3c22:	c09c                	sw	a5,0(s1)
    3c24:	b74d                	j	3bc6 <_free_r+0x36>
    3c26:	4010                	lw	a2,0(s0)
    3c28:	00c406b3          	add	a3,s0,a2
    3c2c:	00d71663          	bne	a4,a3,3c38 <_free_r+0xa8>
    3c30:	4314                	lw	a3,0(a4)
    3c32:	4358                	lw	a4,4(a4)
    3c34:	96b2                	add	a3,a3,a2
    3c36:	c014                	sw	a3,0(s0)
    3c38:	c058                	sw	a4,4(s0)
    3c3a:	c3c0                	sw	s0,4(a5)
    3c3c:	b769                	j	3bc6 <_free_r+0x36>
    3c3e:	8082                	ret

00003c40 <_malloc_r>:
    3c40:	1101                	addi	sp,sp,-32
    3c42:	ca26                	sw	s1,20(sp)
    3c44:	00358493          	addi	s1,a1,3
    3c48:	98f1                	andi	s1,s1,-4
    3c4a:	ce06                	sw	ra,28(sp)
    3c4c:	cc22                	sw	s0,24(sp)
    3c4e:	c84a                	sw	s2,16(sp)
    3c50:	c64e                	sw	s3,12(sp)
    3c52:	04a1                	addi	s1,s1,8
    3c54:	47b1                	li	a5,12
    3c56:	04f4f963          	bgeu	s1,a5,3ca8 <_malloc_r+0x68>
    3c5a:	44b1                	li	s1,12
    3c5c:	04b4e863          	bltu	s1,a1,3cac <_malloc_r+0x6c>
    3c60:	892a                	mv	s2,a0
    3c62:	153000ef          	jal	ra,45b4 <__malloc_lock>
    3c66:	1fffc797          	auipc	a5,0x1fffc
    3c6a:	4de78793          	addi	a5,a5,1246 # 20000144 <__malloc_free_list>
    3c6e:	4398                	lw	a4,0(a5)
    3c70:	843a                	mv	s0,a4
    3c72:	e439                	bnez	s0,3cc0 <_malloc_r+0x80>
    3c74:	1fffc797          	auipc	a5,0x1fffc
    3c78:	4d478793          	addi	a5,a5,1236 # 20000148 <__malloc_sbrk_start>
    3c7c:	439c                	lw	a5,0(a5)
    3c7e:	eb81                	bnez	a5,3c8e <_malloc_r+0x4e>
    3c80:	4581                	li	a1,0
    3c82:	854a                	mv	a0,s2
    3c84:	2781                	jal	43c4 <_sbrk_r>
    3c86:	1fffc797          	auipc	a5,0x1fffc
    3c8a:	4ca7a123          	sw	a0,1218(a5) # 20000148 <__malloc_sbrk_start>
    3c8e:	85a6                	mv	a1,s1
    3c90:	854a                	mv	a0,s2
    3c92:	2f0d                	jal	43c4 <_sbrk_r>
    3c94:	59fd                	li	s3,-1
    3c96:	07351b63          	bne	a0,s3,3d0c <_malloc_r+0xcc>
    3c9a:	47b1                	li	a5,12
    3c9c:	00f92023          	sw	a5,0(s2)
    3ca0:	854a                	mv	a0,s2
    3ca2:	115000ef          	jal	ra,45b6 <__malloc_unlock>
    3ca6:	a029                	j	3cb0 <_malloc_r+0x70>
    3ca8:	fa04dae3          	bgez	s1,3c5c <_malloc_r+0x1c>
    3cac:	47b1                	li	a5,12
    3cae:	c11c                	sw	a5,0(a0)
    3cb0:	4501                	li	a0,0
    3cb2:	40f2                	lw	ra,28(sp)
    3cb4:	4462                	lw	s0,24(sp)
    3cb6:	44d2                	lw	s1,20(sp)
    3cb8:	4942                	lw	s2,16(sp)
    3cba:	49b2                	lw	s3,12(sp)
    3cbc:	6105                	addi	sp,sp,32
    3cbe:	8082                	ret
    3cc0:	401c                	lw	a5,0(s0)
    3cc2:	8f85                	sub	a5,a5,s1
    3cc4:	0407c163          	bltz	a5,3d06 <_malloc_r+0xc6>
    3cc8:	46ad                	li	a3,11
    3cca:	00f6f663          	bgeu	a3,a5,3cd6 <_malloc_r+0x96>
    3cce:	c01c                	sw	a5,0(s0)
    3cd0:	943e                	add	s0,s0,a5
    3cd2:	c004                	sw	s1,0(s0)
    3cd4:	a801                	j	3ce4 <_malloc_r+0xa4>
    3cd6:	405c                	lw	a5,4(s0)
    3cd8:	02871563          	bne	a4,s0,3d02 <_malloc_r+0xc2>
    3cdc:	1fffc717          	auipc	a4,0x1fffc
    3ce0:	46f72423          	sw	a5,1128(a4) # 20000144 <__malloc_free_list>
    3ce4:	854a                	mv	a0,s2
    3ce6:	0d1000ef          	jal	ra,45b6 <__malloc_unlock>
    3cea:	00b40513          	addi	a0,s0,11
    3cee:	00440793          	addi	a5,s0,4
    3cf2:	9961                	andi	a0,a0,-8
    3cf4:	40f50733          	sub	a4,a0,a5
    3cf8:	df4d                	beqz	a4,3cb2 <_malloc_r+0x72>
    3cfa:	943a                	add	s0,s0,a4
    3cfc:	8f89                	sub	a5,a5,a0
    3cfe:	c01c                	sw	a5,0(s0)
    3d00:	bf4d                	j	3cb2 <_malloc_r+0x72>
    3d02:	c35c                	sw	a5,4(a4)
    3d04:	b7c5                	j	3ce4 <_malloc_r+0xa4>
    3d06:	8722                	mv	a4,s0
    3d08:	4040                	lw	s0,4(s0)
    3d0a:	b7a5                	j	3c72 <_malloc_r+0x32>
    3d0c:	00350413          	addi	s0,a0,3
    3d10:	9871                	andi	s0,s0,-4
    3d12:	fc8500e3          	beq	a0,s0,3cd2 <_malloc_r+0x92>
    3d16:	40a405b3          	sub	a1,s0,a0
    3d1a:	854a                	mv	a0,s2
    3d1c:	2565                	jal	43c4 <_sbrk_r>
    3d1e:	fb351ae3          	bne	a0,s3,3cd2 <_malloc_r+0x92>
    3d22:	bfa5                	j	3c9a <_malloc_r+0x5a>

00003d24 <__sfputc_r>:
    3d24:	461c                	lw	a5,8(a2)
    3d26:	17fd                	addi	a5,a5,-1
    3d28:	c61c                	sw	a5,8(a2)
    3d2a:	0007da63          	bgez	a5,3d3e <__sfputc_r+0x1a>
    3d2e:	4e18                	lw	a4,24(a2)
    3d30:	00e7c563          	blt	a5,a4,3d3a <__sfputc_r+0x16>
    3d34:	47a9                	li	a5,10
    3d36:	00f59463          	bne	a1,a5,3d3e <__sfputc_r+0x1a>
    3d3a:	ff2ff06f          	j	352c <__swbuf_r>
    3d3e:	421c                	lw	a5,0(a2)
    3d40:	852e                	mv	a0,a1
    3d42:	00178713          	addi	a4,a5,1
    3d46:	c218                	sw	a4,0(a2)
    3d48:	a38c                	sb	a1,0(a5)
    3d4a:	8082                	ret

00003d4c <__sfputs_r>:
    3d4c:	1101                	addi	sp,sp,-32
    3d4e:	cc22                	sw	s0,24(sp)
    3d50:	ca26                	sw	s1,20(sp)
    3d52:	c84a                	sw	s2,16(sp)
    3d54:	c64e                	sw	s3,12(sp)
    3d56:	c452                	sw	s4,8(sp)
    3d58:	ce06                	sw	ra,28(sp)
    3d5a:	892a                	mv	s2,a0
    3d5c:	89ae                	mv	s3,a1
    3d5e:	8432                	mv	s0,a2
    3d60:	00d604b3          	add	s1,a2,a3
    3d64:	5a7d                	li	s4,-1
    3d66:	00941463          	bne	s0,s1,3d6e <__sfputs_r+0x22>
    3d6a:	4501                	li	a0,0
    3d6c:	a809                	j	3d7e <__sfputs_r+0x32>
    3d6e:	200c                	lbu	a1,0(s0)
    3d70:	864e                	mv	a2,s3
    3d72:	854a                	mv	a0,s2
    3d74:	fb1ff0ef          	jal	ra,3d24 <__sfputc_r>
    3d78:	0405                	addi	s0,s0,1
    3d7a:	ff4516e3          	bne	a0,s4,3d66 <__sfputs_r+0x1a>
    3d7e:	40f2                	lw	ra,28(sp)
    3d80:	4462                	lw	s0,24(sp)
    3d82:	44d2                	lw	s1,20(sp)
    3d84:	4942                	lw	s2,16(sp)
    3d86:	49b2                	lw	s3,12(sp)
    3d88:	4a22                	lw	s4,8(sp)
    3d8a:	6105                	addi	sp,sp,32
    3d8c:	8082                	ret

00003d8e <_vfiprintf_r>:
    3d8e:	7135                	addi	sp,sp,-160
    3d90:	cd22                	sw	s0,152(sp)
    3d92:	cb26                	sw	s1,148(sp)
    3d94:	c94a                	sw	s2,144(sp)
    3d96:	c74e                	sw	s3,140(sp)
    3d98:	cf06                	sw	ra,156(sp)
    3d9a:	c552                	sw	s4,136(sp)
    3d9c:	c356                	sw	s5,132(sp)
    3d9e:	c15a                	sw	s6,128(sp)
    3da0:	dede                	sw	s7,124(sp)
    3da2:	dce2                	sw	s8,120(sp)
    3da4:	dae6                	sw	s9,116(sp)
    3da6:	89aa                	mv	s3,a0
    3da8:	84ae                	mv	s1,a1
    3daa:	8932                	mv	s2,a2
    3dac:	8436                	mv	s0,a3
    3dae:	c509                	beqz	a0,3db8 <_vfiprintf_r+0x2a>
    3db0:	4d1c                	lw	a5,24(a0)
    3db2:	e399                	bnez	a5,3db8 <_vfiprintf_r+0x2a>
    3db4:	b7dff0ef          	jal	ra,3930 <__sinit>
    3db8:	00001797          	auipc	a5,0x1
    3dbc:	b2478793          	addi	a5,a5,-1244 # 48dc <__sf_fake_stdin>
    3dc0:	0cf49863          	bne	s1,a5,3e90 <_vfiprintf_r+0x102>
    3dc4:	0049a483          	lw	s1,4(s3)
    3dc8:	24de                	lhu	a5,12(s1)
    3dca:	8ba1                	andi	a5,a5,8
    3dcc:	c7e5                	beqz	a5,3eb4 <_vfiprintf_r+0x126>
    3dce:	489c                	lw	a5,16(s1)
    3dd0:	c3f5                	beqz	a5,3eb4 <_vfiprintf_r+0x126>
    3dd2:	02000793          	li	a5,32
    3dd6:	02f104a3          	sb	a5,41(sp)
    3dda:	03000793          	li	a5,48
    3dde:	d202                	sw	zero,36(sp)
    3de0:	02f10523          	sb	a5,42(sp)
    3de4:	c622                	sw	s0,12(sp)
    3de6:	02500b93          	li	s7,37
    3dea:	00001a97          	auipc	s5,0x1
    3dee:	b32a8a93          	addi	s5,s5,-1230 # 491c <__sf_fake_stdout+0x20>
    3df2:	4c05                	li	s8,1
    3df4:	4b29                	li	s6,10
    3df6:	844a                	mv	s0,s2
    3df8:	201c                	lbu	a5,0(s0)
    3dfa:	c399                	beqz	a5,3e00 <_vfiprintf_r+0x72>
    3dfc:	0d779f63          	bne	a5,s7,3eda <_vfiprintf_r+0x14c>
    3e00:	41240cb3          	sub	s9,s0,s2
    3e04:	000c8e63          	beqz	s9,3e20 <_vfiprintf_r+0x92>
    3e08:	86e6                	mv	a3,s9
    3e0a:	864a                	mv	a2,s2
    3e0c:	85a6                	mv	a1,s1
    3e0e:	854e                	mv	a0,s3
    3e10:	f3dff0ef          	jal	ra,3d4c <__sfputs_r>
    3e14:	57fd                	li	a5,-1
    3e16:	1cf50f63          	beq	a0,a5,3ff4 <_vfiprintf_r+0x266>
    3e1a:	5692                	lw	a3,36(sp)
    3e1c:	96e6                	add	a3,a3,s9
    3e1e:	d236                	sw	a3,36(sp)
    3e20:	201c                	lbu	a5,0(s0)
    3e22:	1c078963          	beqz	a5,3ff4 <_vfiprintf_r+0x266>
    3e26:	57fd                	li	a5,-1
    3e28:	00140913          	addi	s2,s0,1
    3e2c:	c802                	sw	zero,16(sp)
    3e2e:	ce02                	sw	zero,28(sp)
    3e30:	ca3e                	sw	a5,20(sp)
    3e32:	cc02                	sw	zero,24(sp)
    3e34:	040109a3          	sb	zero,83(sp)
    3e38:	d482                	sw	zero,104(sp)
    3e3a:	00094583          	lbu	a1,0(s2)
    3e3e:	4615                	li	a2,5
    3e40:	8556                	mv	a0,s5
    3e42:	2fa9                	jal	459c <memchr>
    3e44:	00190413          	addi	s0,s2,1
    3e48:	47c2                	lw	a5,16(sp)
    3e4a:	e951                	bnez	a0,3ede <_vfiprintf_r+0x150>
    3e4c:	0107f713          	andi	a4,a5,16
    3e50:	c709                	beqz	a4,3e5a <_vfiprintf_r+0xcc>
    3e52:	02000713          	li	a4,32
    3e56:	04e109a3          	sb	a4,83(sp)
    3e5a:	0087f713          	andi	a4,a5,8
    3e5e:	c709                	beqz	a4,3e68 <_vfiprintf_r+0xda>
    3e60:	02b00713          	li	a4,43
    3e64:	04e109a3          	sb	a4,83(sp)
    3e68:	00094683          	lbu	a3,0(s2)
    3e6c:	02a00713          	li	a4,42
    3e70:	06e68f63          	beq	a3,a4,3eee <_vfiprintf_r+0x160>
    3e74:	47f2                	lw	a5,28(sp)
    3e76:	844a                	mv	s0,s2
    3e78:	4681                	li	a3,0
    3e7a:	4625                	li	a2,9
    3e7c:	2018                	lbu	a4,0(s0)
    3e7e:	00140593          	addi	a1,s0,1
    3e82:	fd070713          	addi	a4,a4,-48
    3e86:	0ae67763          	bgeu	a2,a4,3f34 <_vfiprintf_r+0x1a6>
    3e8a:	cab5                	beqz	a3,3efe <_vfiprintf_r+0x170>
    3e8c:	ce3e                	sw	a5,28(sp)
    3e8e:	a885                	j	3efe <_vfiprintf_r+0x170>
    3e90:	00001797          	auipc	a5,0x1
    3e94:	a6c78793          	addi	a5,a5,-1428 # 48fc <__sf_fake_stdout>
    3e98:	00f49563          	bne	s1,a5,3ea2 <_vfiprintf_r+0x114>
    3e9c:	0089a483          	lw	s1,8(s3)
    3ea0:	b725                	j	3dc8 <_vfiprintf_r+0x3a>
    3ea2:	00001797          	auipc	a5,0x1
    3ea6:	a1a78793          	addi	a5,a5,-1510 # 48bc <__sf_fake_stderr>
    3eaa:	f0f49fe3          	bne	s1,a5,3dc8 <_vfiprintf_r+0x3a>
    3eae:	00c9a483          	lw	s1,12(s3)
    3eb2:	bf19                	j	3dc8 <_vfiprintf_r+0x3a>
    3eb4:	85a6                	mv	a1,s1
    3eb6:	854e                	mv	a0,s3
    3eb8:	f30ff0ef          	jal	ra,35e8 <__swsetup_r>
    3ebc:	d919                	beqz	a0,3dd2 <_vfiprintf_r+0x44>
    3ebe:	557d                	li	a0,-1
    3ec0:	40fa                	lw	ra,156(sp)
    3ec2:	446a                	lw	s0,152(sp)
    3ec4:	44da                	lw	s1,148(sp)
    3ec6:	494a                	lw	s2,144(sp)
    3ec8:	49ba                	lw	s3,140(sp)
    3eca:	4a2a                	lw	s4,136(sp)
    3ecc:	4a9a                	lw	s5,132(sp)
    3ece:	4b0a                	lw	s6,128(sp)
    3ed0:	5bf6                	lw	s7,124(sp)
    3ed2:	5c66                	lw	s8,120(sp)
    3ed4:	5cd6                	lw	s9,116(sp)
    3ed6:	610d                	addi	sp,sp,160
    3ed8:	8082                	ret
    3eda:	0405                	addi	s0,s0,1
    3edc:	bf31                	j	3df8 <_vfiprintf_r+0x6a>
    3ede:	41550533          	sub	a0,a0,s5
    3ee2:	00ac1533          	sll	a0,s8,a0
    3ee6:	8fc9                	or	a5,a5,a0
    3ee8:	c83e                	sw	a5,16(sp)
    3eea:	8922                	mv	s2,s0
    3eec:	b7b9                	j	3e3a <_vfiprintf_r+0xac>
    3eee:	4732                	lw	a4,12(sp)
    3ef0:	00470693          	addi	a3,a4,4
    3ef4:	4318                	lw	a4,0(a4)
    3ef6:	c636                	sw	a3,12(sp)
    3ef8:	02074763          	bltz	a4,3f26 <_vfiprintf_r+0x198>
    3efc:	ce3a                	sw	a4,28(sp)
    3efe:	2018                	lbu	a4,0(s0)
    3f00:	02e00793          	li	a5,46
    3f04:	04f71d63          	bne	a4,a5,3f5e <_vfiprintf_r+0x1d0>
    3f08:	3018                	lbu	a4,1(s0)
    3f0a:	02a00793          	li	a5,42
    3f0e:	02f71b63          	bne	a4,a5,3f44 <_vfiprintf_r+0x1b6>
    3f12:	47b2                	lw	a5,12(sp)
    3f14:	0409                	addi	s0,s0,2
    3f16:	00478713          	addi	a4,a5,4
    3f1a:	439c                	lw	a5,0(a5)
    3f1c:	c63a                	sw	a4,12(sp)
    3f1e:	0207c163          	bltz	a5,3f40 <_vfiprintf_r+0x1b2>
    3f22:	ca3e                	sw	a5,20(sp)
    3f24:	a82d                	j	3f5e <_vfiprintf_r+0x1d0>
    3f26:	40e00733          	neg	a4,a4
    3f2a:	0027e793          	ori	a5,a5,2
    3f2e:	ce3a                	sw	a4,28(sp)
    3f30:	c83e                	sw	a5,16(sp)
    3f32:	b7f1                	j	3efe <_vfiprintf_r+0x170>
    3f34:	036787b3          	mul	a5,a5,s6
    3f38:	4685                	li	a3,1
    3f3a:	842e                	mv	s0,a1
    3f3c:	97ba                	add	a5,a5,a4
    3f3e:	bf3d                	j	3e7c <_vfiprintf_r+0xee>
    3f40:	57fd                	li	a5,-1
    3f42:	b7c5                	j	3f22 <_vfiprintf_r+0x194>
    3f44:	0405                	addi	s0,s0,1
    3f46:	ca02                	sw	zero,20(sp)
    3f48:	4681                	li	a3,0
    3f4a:	4781                	li	a5,0
    3f4c:	4625                	li	a2,9
    3f4e:	2018                	lbu	a4,0(s0)
    3f50:	00140593          	addi	a1,s0,1
    3f54:	fd070713          	addi	a4,a4,-48
    3f58:	06e67463          	bgeu	a2,a4,3fc0 <_vfiprintf_r+0x232>
    3f5c:	f2f9                	bnez	a3,3f22 <_vfiprintf_r+0x194>
    3f5e:	200c                	lbu	a1,0(s0)
    3f60:	460d                	li	a2,3
    3f62:	00001517          	auipc	a0,0x1
    3f66:	9c250513          	addi	a0,a0,-1598 # 4924 <__sf_fake_stdout+0x28>
    3f6a:	2d0d                	jal	459c <memchr>
    3f6c:	cd11                	beqz	a0,3f88 <_vfiprintf_r+0x1fa>
    3f6e:	00001797          	auipc	a5,0x1
    3f72:	9b678793          	addi	a5,a5,-1610 # 4924 <__sf_fake_stdout+0x28>
    3f76:	8d1d                	sub	a0,a0,a5
    3f78:	04000793          	li	a5,64
    3f7c:	00a797b3          	sll	a5,a5,a0
    3f80:	4542                	lw	a0,16(sp)
    3f82:	0405                	addi	s0,s0,1
    3f84:	8d5d                	or	a0,a0,a5
    3f86:	c82a                	sw	a0,16(sp)
    3f88:	200c                	lbu	a1,0(s0)
    3f8a:	4619                	li	a2,6
    3f8c:	00001517          	auipc	a0,0x1
    3f90:	99c50513          	addi	a0,a0,-1636 # 4928 <__sf_fake_stdout+0x2c>
    3f94:	00140913          	addi	s2,s0,1
    3f98:	02b10423          	sb	a1,40(sp)
    3f9c:	2501                	jal	459c <memchr>
    3f9e:	c135                	beqz	a0,4002 <_vfiprintf_r+0x274>
    3fa0:	ffffc797          	auipc	a5,0xffffc
    3fa4:	06078793          	addi	a5,a5,96 # 0 <_sinit>
    3fa8:	e795                	bnez	a5,3fd4 <_vfiprintf_r+0x246>
    3faa:	4742                	lw	a4,16(sp)
    3fac:	47b2                	lw	a5,12(sp)
    3fae:	10077713          	andi	a4,a4,256
    3fb2:	cf09                	beqz	a4,3fcc <_vfiprintf_r+0x23e>
    3fb4:	0791                	addi	a5,a5,4
    3fb6:	c63e                	sw	a5,12(sp)
    3fb8:	5792                	lw	a5,36(sp)
    3fba:	97d2                	add	a5,a5,s4
    3fbc:	d23e                	sw	a5,36(sp)
    3fbe:	bd25                	j	3df6 <_vfiprintf_r+0x68>
    3fc0:	036787b3          	mul	a5,a5,s6
    3fc4:	4685                	li	a3,1
    3fc6:	842e                	mv	s0,a1
    3fc8:	97ba                	add	a5,a5,a4
    3fca:	b751                	j	3f4e <_vfiprintf_r+0x1c0>
    3fcc:	079d                	addi	a5,a5,7
    3fce:	9be1                	andi	a5,a5,-8
    3fd0:	07a1                	addi	a5,a5,8
    3fd2:	b7d5                	j	3fb6 <_vfiprintf_r+0x228>
    3fd4:	0078                	addi	a4,sp,12
    3fd6:	00000697          	auipc	a3,0x0
    3fda:	d7668693          	addi	a3,a3,-650 # 3d4c <__sfputs_r>
    3fde:	8626                	mv	a2,s1
    3fe0:	080c                	addi	a1,sp,16
    3fe2:	854e                	mv	a0,s3
    3fe4:	00000097          	auipc	ra,0x0
    3fe8:	000000e7          	jalr	zero # 0 <_sinit>
    3fec:	57fd                	li	a5,-1
    3fee:	8a2a                	mv	s4,a0
    3ff0:	fcf514e3          	bne	a0,a5,3fb8 <_vfiprintf_r+0x22a>
    3ff4:	24de                	lhu	a5,12(s1)
    3ff6:	0407f793          	andi	a5,a5,64
    3ffa:	ec0792e3          	bnez	a5,3ebe <_vfiprintf_r+0x130>
    3ffe:	5512                	lw	a0,36(sp)
    4000:	b5c1                	j	3ec0 <_vfiprintf_r+0x132>
    4002:	0078                	addi	a4,sp,12
    4004:	00000697          	auipc	a3,0x0
    4008:	d4868693          	addi	a3,a3,-696 # 3d4c <__sfputs_r>
    400c:	8626                	mv	a2,s1
    400e:	080c                	addi	a1,sp,16
    4010:	854e                	mv	a0,s3
    4012:	2a01                	jal	4122 <_printf_i>
    4014:	bfe1                	j	3fec <_vfiprintf_r+0x25e>

00004016 <_printf_common>:
    4016:	7179                	addi	sp,sp,-48
    4018:	ca56                	sw	s5,20(sp)
    401a:	499c                	lw	a5,16(a1)
    401c:	8aba                	mv	s5,a4
    401e:	4598                	lw	a4,8(a1)
    4020:	d422                	sw	s0,40(sp)
    4022:	d226                	sw	s1,36(sp)
    4024:	ce4e                	sw	s3,28(sp)
    4026:	cc52                	sw	s4,24(sp)
    4028:	d606                	sw	ra,44(sp)
    402a:	d04a                	sw	s2,32(sp)
    402c:	c85a                	sw	s6,16(sp)
    402e:	c65e                	sw	s7,12(sp)
    4030:	89aa                	mv	s3,a0
    4032:	842e                	mv	s0,a1
    4034:	84b2                	mv	s1,a2
    4036:	8a36                	mv	s4,a3
    4038:	00e7d363          	bge	a5,a4,403e <_printf_common+0x28>
    403c:	87ba                	mv	a5,a4
    403e:	c09c                	sw	a5,0(s1)
    4040:	04344703          	lbu	a4,67(s0)
    4044:	c319                	beqz	a4,404a <_printf_common+0x34>
    4046:	0785                	addi	a5,a5,1
    4048:	c09c                	sw	a5,0(s1)
    404a:	401c                	lw	a5,0(s0)
    404c:	0207f793          	andi	a5,a5,32
    4050:	c781                	beqz	a5,4058 <_printf_common+0x42>
    4052:	409c                	lw	a5,0(s1)
    4054:	0789                	addi	a5,a5,2
    4056:	c09c                	sw	a5,0(s1)
    4058:	00042903          	lw	s2,0(s0)
    405c:	00697913          	andi	s2,s2,6
    4060:	00091a63          	bnez	s2,4074 <_printf_common+0x5e>
    4064:	01940b13          	addi	s6,s0,25
    4068:	5bfd                	li	s7,-1
    406a:	445c                	lw	a5,12(s0)
    406c:	4098                	lw	a4,0(s1)
    406e:	8f99                	sub	a5,a5,a4
    4070:	04f94c63          	blt	s2,a5,40c8 <_printf_common+0xb2>
    4074:	401c                	lw	a5,0(s0)
    4076:	04344683          	lbu	a3,67(s0)
    407a:	0207f793          	andi	a5,a5,32
    407e:	00d036b3          	snez	a3,a3
    4082:	eba5                	bnez	a5,40f2 <_printf_common+0xdc>
    4084:	04340613          	addi	a2,s0,67
    4088:	85d2                	mv	a1,s4
    408a:	854e                	mv	a0,s3
    408c:	9a82                	jalr	s5
    408e:	57fd                	li	a5,-1
    4090:	04f50363          	beq	a0,a5,40d6 <_printf_common+0xc0>
    4094:	401c                	lw	a5,0(s0)
    4096:	4611                	li	a2,4
    4098:	4098                	lw	a4,0(s1)
    409a:	8b99                	andi	a5,a5,6
    409c:	4454                	lw	a3,12(s0)
    409e:	4481                	li	s1,0
    40a0:	00c79763          	bne	a5,a2,40ae <_printf_common+0x98>
    40a4:	40e684b3          	sub	s1,a3,a4
    40a8:	0004d363          	bgez	s1,40ae <_printf_common+0x98>
    40ac:	4481                	li	s1,0
    40ae:	441c                	lw	a5,8(s0)
    40b0:	4818                	lw	a4,16(s0)
    40b2:	00f75463          	bge	a4,a5,40ba <_printf_common+0xa4>
    40b6:	8f99                	sub	a5,a5,a4
    40b8:	94be                	add	s1,s1,a5
    40ba:	4901                	li	s2,0
    40bc:	0469                	addi	s0,s0,26
    40be:	5b7d                	li	s6,-1
    40c0:	05249863          	bne	s1,s2,4110 <_printf_common+0xfa>
    40c4:	4501                	li	a0,0
    40c6:	a809                	j	40d8 <_printf_common+0xc2>
    40c8:	4685                	li	a3,1
    40ca:	865a                	mv	a2,s6
    40cc:	85d2                	mv	a1,s4
    40ce:	854e                	mv	a0,s3
    40d0:	9a82                	jalr	s5
    40d2:	01751e63          	bne	a0,s7,40ee <_printf_common+0xd8>
    40d6:	557d                	li	a0,-1
    40d8:	50b2                	lw	ra,44(sp)
    40da:	5422                	lw	s0,40(sp)
    40dc:	5492                	lw	s1,36(sp)
    40de:	5902                	lw	s2,32(sp)
    40e0:	49f2                	lw	s3,28(sp)
    40e2:	4a62                	lw	s4,24(sp)
    40e4:	4ad2                	lw	s5,20(sp)
    40e6:	4b42                	lw	s6,16(sp)
    40e8:	4bb2                	lw	s7,12(sp)
    40ea:	6145                	addi	sp,sp,48
    40ec:	8082                	ret
    40ee:	0905                	addi	s2,s2,1
    40f0:	bfad                	j	406a <_printf_common+0x54>
    40f2:	00d40733          	add	a4,s0,a3
    40f6:	03000613          	li	a2,48
    40fa:	04c701a3          	sb	a2,67(a4)
    40fe:	04544703          	lbu	a4,69(s0)
    4102:	00168793          	addi	a5,a3,1
    4106:	97a2                	add	a5,a5,s0
    4108:	0689                	addi	a3,a3,2
    410a:	04e781a3          	sb	a4,67(a5)
    410e:	bf9d                	j	4084 <_printf_common+0x6e>
    4110:	4685                	li	a3,1
    4112:	8622                	mv	a2,s0
    4114:	85d2                	mv	a1,s4
    4116:	854e                	mv	a0,s3
    4118:	9a82                	jalr	s5
    411a:	fb650ee3          	beq	a0,s6,40d6 <_printf_common+0xc0>
    411e:	0905                	addi	s2,s2,1
    4120:	b745                	j	40c0 <_printf_common+0xaa>

00004122 <_printf_i>:
    4122:	7179                	addi	sp,sp,-48
    4124:	d422                	sw	s0,40(sp)
    4126:	d226                	sw	s1,36(sp)
    4128:	d04a                	sw	s2,32(sp)
    412a:	ce4e                	sw	s3,28(sp)
    412c:	d606                	sw	ra,44(sp)
    412e:	cc52                	sw	s4,24(sp)
    4130:	ca56                	sw	s5,20(sp)
    4132:	c85a                	sw	s6,16(sp)
    4134:	89b6                	mv	s3,a3
    4136:	2d94                	lbu	a3,24(a1)
    4138:	06900793          	li	a5,105
    413c:	8932                	mv	s2,a2
    413e:	84aa                	mv	s1,a0
    4140:	842e                	mv	s0,a1
    4142:	04358613          	addi	a2,a1,67
    4146:	02f68d63          	beq	a3,a5,4180 <_printf_i+0x5e>
    414a:	06d7e263          	bltu	a5,a3,41ae <_printf_i+0x8c>
    414e:	05800793          	li	a5,88
    4152:	18f68663          	beq	a3,a5,42de <_printf_i+0x1bc>
    4156:	00d7ed63          	bltu	a5,a3,4170 <_printf_i+0x4e>
    415a:	20068e63          	beqz	a3,4376 <_printf_i+0x254>
    415e:	04300793          	li	a5,67
    4162:	0af68e63          	beq	a3,a5,421e <_printf_i+0xfc>
    4166:	04240a93          	addi	s5,s0,66
    416a:	04d40123          	sb	a3,66(s0)
    416e:	a0c9                	j	4230 <_printf_i+0x10e>
    4170:	06300793          	li	a5,99
    4174:	0af68563          	beq	a3,a5,421e <_printf_i+0xfc>
    4178:	06400793          	li	a5,100
    417c:	fef695e3          	bne	a3,a5,4166 <_printf_i+0x44>
    4180:	401c                	lw	a5,0(s0)
    4182:	4308                	lw	a0,0(a4)
    4184:	0807f693          	andi	a3,a5,128
    4188:	00450593          	addi	a1,a0,4
    418c:	c6c5                	beqz	a3,4234 <_printf_i+0x112>
    418e:	411c                	lw	a5,0(a0)
    4190:	c30c                	sw	a1,0(a4)
    4192:	0007d863          	bgez	a5,41a2 <_printf_i+0x80>
    4196:	02d00713          	li	a4,45
    419a:	40f007b3          	neg	a5,a5
    419e:	04e401a3          	sb	a4,67(s0)
    41a2:	00000697          	auipc	a3,0x0
    41a6:	78e68693          	addi	a3,a3,1934 # 4930 <__sf_fake_stdout+0x34>
    41aa:	4729                	li	a4,10
    41ac:	a865                	j	4264 <_printf_i+0x142>
    41ae:	07000793          	li	a5,112
    41b2:	16f68263          	beq	a3,a5,4316 <_printf_i+0x1f4>
    41b6:	02d7e563          	bltu	a5,a3,41e0 <_printf_i+0xbe>
    41ba:	06e00793          	li	a5,110
    41be:	18f68963          	beq	a3,a5,4350 <_printf_i+0x22e>
    41c2:	06f00793          	li	a5,111
    41c6:	faf690e3          	bne	a3,a5,4166 <_printf_i+0x44>
    41ca:	400c                	lw	a1,0(s0)
    41cc:	431c                	lw	a5,0(a4)
    41ce:	0805f813          	andi	a6,a1,128
    41d2:	00478513          	addi	a0,a5,4
    41d6:	06080763          	beqz	a6,4244 <_printf_i+0x122>
    41da:	c308                	sw	a0,0(a4)
    41dc:	439c                	lw	a5,0(a5)
    41de:	a885                	j	424e <_printf_i+0x12c>
    41e0:	07500793          	li	a5,117
    41e4:	fef683e3          	beq	a3,a5,41ca <_printf_i+0xa8>
    41e8:	07800793          	li	a5,120
    41ec:	12f68963          	beq	a3,a5,431e <_printf_i+0x1fc>
    41f0:	07300793          	li	a5,115
    41f4:	f6f699e3          	bne	a3,a5,4166 <_printf_i+0x44>
    41f8:	431c                	lw	a5,0(a4)
    41fa:	41d0                	lw	a2,4(a1)
    41fc:	4581                	li	a1,0
    41fe:	00478693          	addi	a3,a5,4
    4202:	c314                	sw	a3,0(a4)
    4204:	0007aa83          	lw	s5,0(a5)
    4208:	8556                	mv	a0,s5
    420a:	2e49                	jal	459c <memchr>
    420c:	c501                	beqz	a0,4214 <_printf_i+0xf2>
    420e:	41550533          	sub	a0,a0,s5
    4212:	c048                	sw	a0,4(s0)
    4214:	405c                	lw	a5,4(s0)
    4216:	c81c                	sw	a5,16(s0)
    4218:	040401a3          	sb	zero,67(s0)
    421c:	a861                	j	42b4 <_printf_i+0x192>
    421e:	431c                	lw	a5,0(a4)
    4220:	04240a93          	addi	s5,s0,66
    4224:	00478693          	addi	a3,a5,4
    4228:	439c                	lw	a5,0(a5)
    422a:	c314                	sw	a3,0(a4)
    422c:	04f40123          	sb	a5,66(s0)
    4230:	4785                	li	a5,1
    4232:	b7d5                	j	4216 <_printf_i+0xf4>
    4234:	0407f693          	andi	a3,a5,64
    4238:	411c                	lw	a5,0(a0)
    423a:	c30c                	sw	a1,0(a4)
    423c:	dab9                	beqz	a3,4192 <_printf_i+0x70>
    423e:	07c2                	slli	a5,a5,0x10
    4240:	87c1                	srai	a5,a5,0x10
    4242:	bf81                	j	4192 <_printf_i+0x70>
    4244:	0405f593          	andi	a1,a1,64
    4248:	c308                	sw	a0,0(a4)
    424a:	d9c9                	beqz	a1,41dc <_printf_i+0xba>
    424c:	239e                	lhu	a5,0(a5)
    424e:	06f00713          	li	a4,111
    4252:	0ee68763          	beq	a3,a4,4340 <_printf_i+0x21e>
    4256:	00000697          	auipc	a3,0x0
    425a:	6da68693          	addi	a3,a3,1754 # 4930 <__sf_fake_stdout+0x34>
    425e:	4729                	li	a4,10
    4260:	040401a3          	sb	zero,67(s0)
    4264:	404c                	lw	a1,4(s0)
    4266:	c40c                	sw	a1,8(s0)
    4268:	0005c563          	bltz	a1,4272 <_printf_i+0x150>
    426c:	4008                	lw	a0,0(s0)
    426e:	996d                	andi	a0,a0,-5
    4270:	c008                	sw	a0,0(s0)
    4272:	e399                	bnez	a5,4278 <_printf_i+0x156>
    4274:	8ab2                	mv	s5,a2
    4276:	cd89                	beqz	a1,4290 <_printf_i+0x16e>
    4278:	8ab2                	mv	s5,a2
    427a:	02e7f5b3          	remu	a1,a5,a4
    427e:	1afd                	addi	s5,s5,-1
    4280:	95b6                	add	a1,a1,a3
    4282:	218c                	lbu	a1,0(a1)
    4284:	00ba8023          	sb	a1,0(s5)
    4288:	02e7d5b3          	divu	a1,a5,a4
    428c:	0ce7f063          	bgeu	a5,a4,434c <_printf_i+0x22a>
    4290:	47a1                	li	a5,8
    4292:	00f71e63          	bne	a4,a5,42ae <_printf_i+0x18c>
    4296:	401c                	lw	a5,0(s0)
    4298:	8b85                	andi	a5,a5,1
    429a:	cb91                	beqz	a5,42ae <_printf_i+0x18c>
    429c:	4058                	lw	a4,4(s0)
    429e:	481c                	lw	a5,16(s0)
    42a0:	00e7c763          	blt	a5,a4,42ae <_printf_i+0x18c>
    42a4:	03000793          	li	a5,48
    42a8:	fefa8fa3          	sb	a5,-1(s5)
    42ac:	1afd                	addi	s5,s5,-1
    42ae:	41560633          	sub	a2,a2,s5
    42b2:	c810                	sw	a2,16(s0)
    42b4:	874e                	mv	a4,s3
    42b6:	86ca                	mv	a3,s2
    42b8:	0070                	addi	a2,sp,12
    42ba:	85a2                	mv	a1,s0
    42bc:	8526                	mv	a0,s1
    42be:	d59ff0ef          	jal	ra,4016 <_printf_common>
    42c2:	5a7d                	li	s4,-1
    42c4:	0b451d63          	bne	a0,s4,437e <_printf_i+0x25c>
    42c8:	557d                	li	a0,-1
    42ca:	50b2                	lw	ra,44(sp)
    42cc:	5422                	lw	s0,40(sp)
    42ce:	5492                	lw	s1,36(sp)
    42d0:	5902                	lw	s2,32(sp)
    42d2:	49f2                	lw	s3,28(sp)
    42d4:	4a62                	lw	s4,24(sp)
    42d6:	4ad2                	lw	s5,20(sp)
    42d8:	4b42                	lw	s6,16(sp)
    42da:	6145                	addi	sp,sp,48
    42dc:	8082                	ret
    42de:	04d582a3          	sb	a3,69(a1)
    42e2:	00000697          	auipc	a3,0x0
    42e6:	64e68693          	addi	a3,a3,1614 # 4930 <__sf_fake_stdout+0x34>
    42ea:	400c                	lw	a1,0(s0)
    42ec:	4308                	lw	a0,0(a4)
    42ee:	0805f813          	andi	a6,a1,128
    42f2:	411c                	lw	a5,0(a0)
    42f4:	0511                	addi	a0,a0,4
    42f6:	02080d63          	beqz	a6,4330 <_printf_i+0x20e>
    42fa:	c308                	sw	a0,0(a4)
    42fc:	0015f713          	andi	a4,a1,1
    4300:	c701                	beqz	a4,4308 <_printf_i+0x1e6>
    4302:	0205e593          	ori	a1,a1,32
    4306:	c00c                	sw	a1,0(s0)
    4308:	4741                	li	a4,16
    430a:	fbb9                	bnez	a5,4260 <_printf_i+0x13e>
    430c:	400c                	lw	a1,0(s0)
    430e:	fdf5f593          	andi	a1,a1,-33
    4312:	c00c                	sw	a1,0(s0)
    4314:	b7b1                	j	4260 <_printf_i+0x13e>
    4316:	419c                	lw	a5,0(a1)
    4318:	0207e793          	ori	a5,a5,32
    431c:	c19c                	sw	a5,0(a1)
    431e:	07800793          	li	a5,120
    4322:	04f402a3          	sb	a5,69(s0)
    4326:	00000697          	auipc	a3,0x0
    432a:	61e68693          	addi	a3,a3,1566 # 4944 <__sf_fake_stdout+0x48>
    432e:	bf75                	j	42ea <_printf_i+0x1c8>
    4330:	0405f813          	andi	a6,a1,64
    4334:	c308                	sw	a0,0(a4)
    4336:	fc0803e3          	beqz	a6,42fc <_printf_i+0x1da>
    433a:	07c2                	slli	a5,a5,0x10
    433c:	83c1                	srli	a5,a5,0x10
    433e:	bf7d                	j	42fc <_printf_i+0x1da>
    4340:	00000697          	auipc	a3,0x0
    4344:	5f068693          	addi	a3,a3,1520 # 4930 <__sf_fake_stdout+0x34>
    4348:	4721                	li	a4,8
    434a:	bf19                	j	4260 <_printf_i+0x13e>
    434c:	87ae                	mv	a5,a1
    434e:	b735                	j	427a <_printf_i+0x158>
    4350:	4194                	lw	a3,0(a1)
    4352:	431c                	lw	a5,0(a4)
    4354:	49cc                	lw	a1,20(a1)
    4356:	0806f813          	andi	a6,a3,128
    435a:	00478513          	addi	a0,a5,4
    435e:	00080663          	beqz	a6,436a <_printf_i+0x248>
    4362:	c308                	sw	a0,0(a4)
    4364:	439c                	lw	a5,0(a5)
    4366:	c38c                	sw	a1,0(a5)
    4368:	a039                	j	4376 <_printf_i+0x254>
    436a:	c308                	sw	a0,0(a4)
    436c:	0406f693          	andi	a3,a3,64
    4370:	439c                	lw	a5,0(a5)
    4372:	daf5                	beqz	a3,4366 <_printf_i+0x244>
    4374:	a38e                	sh	a1,0(a5)
    4376:	00042823          	sw	zero,16(s0)
    437a:	8ab2                	mv	s5,a2
    437c:	bf25                	j	42b4 <_printf_i+0x192>
    437e:	4814                	lw	a3,16(s0)
    4380:	8656                	mv	a2,s5
    4382:	85ca                	mv	a1,s2
    4384:	8526                	mv	a0,s1
    4386:	9982                	jalr	s3
    4388:	f54500e3          	beq	a0,s4,42c8 <_printf_i+0x1a6>
    438c:	401c                	lw	a5,0(s0)
    438e:	8b89                	andi	a5,a5,2
    4390:	e78d                	bnez	a5,43ba <_printf_i+0x298>
    4392:	47b2                	lw	a5,12(sp)
    4394:	4448                	lw	a0,12(s0)
    4396:	f2f55ae3          	bge	a0,a5,42ca <_printf_i+0x1a8>
    439a:	853e                	mv	a0,a5
    439c:	b73d                	j	42ca <_printf_i+0x1a8>
    439e:	4685                	li	a3,1
    43a0:	8656                	mv	a2,s5
    43a2:	85ca                	mv	a1,s2
    43a4:	8526                	mv	a0,s1
    43a6:	9982                	jalr	s3
    43a8:	f36500e3          	beq	a0,s6,42c8 <_printf_i+0x1a6>
    43ac:	0a05                	addi	s4,s4,1
    43ae:	445c                	lw	a5,12(s0)
    43b0:	4732                	lw	a4,12(sp)
    43b2:	8f99                	sub	a5,a5,a4
    43b4:	fefa45e3          	blt	s4,a5,439e <_printf_i+0x27c>
    43b8:	bfe9                	j	4392 <_printf_i+0x270>
    43ba:	4a01                	li	s4,0
    43bc:	01940a93          	addi	s5,s0,25
    43c0:	5b7d                	li	s6,-1
    43c2:	b7f5                	j	43ae <_printf_i+0x28c>

000043c4 <_sbrk_r>:
    43c4:	1141                	addi	sp,sp,-16
    43c6:	c422                	sw	s0,8(sp)
    43c8:	842a                	mv	s0,a0
    43ca:	852e                	mv	a0,a1
    43cc:	1ffff797          	auipc	a5,0x1ffff
    43d0:	f607ac23          	sw	zero,-136(a5) # 20003344 <errno>
    43d4:	c606                	sw	ra,12(sp)
    43d6:	f5bfe0ef          	jal	ra,3330 <_sbrk>
    43da:	57fd                	li	a5,-1
    43dc:	00f51963          	bne	a0,a5,43ee <_sbrk_r+0x2a>
    43e0:	1ffff797          	auipc	a5,0x1ffff
    43e4:	f6478793          	addi	a5,a5,-156 # 20003344 <errno>
    43e8:	439c                	lw	a5,0(a5)
    43ea:	c391                	beqz	a5,43ee <_sbrk_r+0x2a>
    43ec:	c01c                	sw	a5,0(s0)
    43ee:	40b2                	lw	ra,12(sp)
    43f0:	4422                	lw	s0,8(sp)
    43f2:	0141                	addi	sp,sp,16
    43f4:	8082                	ret

000043f6 <__sread>:
    43f6:	1141                	addi	sp,sp,-16
    43f8:	c422                	sw	s0,8(sp)
    43fa:	842e                	mv	s0,a1
    43fc:	00e59583          	lh	a1,14(a1)
    4400:	c606                	sw	ra,12(sp)
    4402:	2a5d                	jal	45b8 <_read_r>
    4404:	00054963          	bltz	a0,4416 <__sread+0x20>
    4408:	487c                	lw	a5,84(s0)
    440a:	97aa                	add	a5,a5,a0
    440c:	c87c                	sw	a5,84(s0)
    440e:	40b2                	lw	ra,12(sp)
    4410:	4422                	lw	s0,8(sp)
    4412:	0141                	addi	sp,sp,16
    4414:	8082                	ret
    4416:	245e                	lhu	a5,12(s0)
    4418:	777d                	lui	a4,0xfffff
    441a:	177d                	addi	a4,a4,-1
    441c:	8ff9                	and	a5,a5,a4
    441e:	a45e                	sh	a5,12(s0)
    4420:	b7fd                	j	440e <__sread+0x18>

00004422 <__swrite>:
    4422:	25de                	lhu	a5,12(a1)
    4424:	1101                	addi	sp,sp,-32
    4426:	cc22                	sw	s0,24(sp)
    4428:	ca26                	sw	s1,20(sp)
    442a:	c84a                	sw	s2,16(sp)
    442c:	c64e                	sw	s3,12(sp)
    442e:	ce06                	sw	ra,28(sp)
    4430:	1007f793          	andi	a5,a5,256
    4434:	84aa                	mv	s1,a0
    4436:	842e                	mv	s0,a1
    4438:	8932                	mv	s2,a2
    443a:	89b6                	mv	s3,a3
    443c:	c791                	beqz	a5,4448 <__swrite+0x26>
    443e:	00e59583          	lh	a1,14(a1)
    4442:	4689                	li	a3,2
    4444:	4601                	li	a2,0
    4446:	220d                	jal	4568 <_lseek_r>
    4448:	245e                	lhu	a5,12(s0)
    444a:	777d                	lui	a4,0xfffff
    444c:	177d                	addi	a4,a4,-1
    444e:	8ff9                	and	a5,a5,a4
    4450:	a45e                	sh	a5,12(s0)
    4452:	00e41583          	lh	a1,14(s0)
    4456:	4462                	lw	s0,24(sp)
    4458:	40f2                	lw	ra,28(sp)
    445a:	86ce                	mv	a3,s3
    445c:	864a                	mv	a2,s2
    445e:	49b2                	lw	s3,12(sp)
    4460:	4942                	lw	s2,16(sp)
    4462:	8526                	mv	a0,s1
    4464:	44d2                	lw	s1,20(sp)
    4466:	6105                	addi	sp,sp,32
    4468:	a825                	j	44a0 <_write_r>

0000446a <__sseek>:
    446a:	1141                	addi	sp,sp,-16
    446c:	c422                	sw	s0,8(sp)
    446e:	842e                	mv	s0,a1
    4470:	00e59583          	lh	a1,14(a1)
    4474:	c606                	sw	ra,12(sp)
    4476:	28cd                	jal	4568 <_lseek_r>
    4478:	57fd                	li	a5,-1
    447a:	245a                	lhu	a4,12(s0)
    447c:	00f51a63          	bne	a0,a5,4490 <__sseek+0x26>
    4480:	77fd                	lui	a5,0xfffff
    4482:	17fd                	addi	a5,a5,-1
    4484:	8ff9                	and	a5,a5,a4
    4486:	a45e                	sh	a5,12(s0)
    4488:	40b2                	lw	ra,12(sp)
    448a:	4422                	lw	s0,8(sp)
    448c:	0141                	addi	sp,sp,16
    448e:	8082                	ret
    4490:	6785                	lui	a5,0x1
    4492:	8fd9                	or	a5,a5,a4
    4494:	a45e                	sh	a5,12(s0)
    4496:	c868                	sw	a0,84(s0)
    4498:	bfc5                	j	4488 <__sseek+0x1e>

0000449a <__sclose>:
    449a:	00e59583          	lh	a1,14(a1)
    449e:	a825                	j	44d6 <_close_r>

000044a0 <_write_r>:
    44a0:	1141                	addi	sp,sp,-16
    44a2:	c422                	sw	s0,8(sp)
    44a4:	842a                	mv	s0,a0
    44a6:	852e                	mv	a0,a1
    44a8:	85b2                	mv	a1,a2
    44aa:	8636                	mv	a2,a3
    44ac:	1ffff797          	auipc	a5,0x1ffff
    44b0:	e807ac23          	sw	zero,-360(a5) # 20003344 <errno>
    44b4:	c606                	sw	ra,12(sp)
    44b6:	e3dfe0ef          	jal	ra,32f2 <_write>
    44ba:	57fd                	li	a5,-1
    44bc:	00f51963          	bne	a0,a5,44ce <_write_r+0x2e>
    44c0:	1ffff797          	auipc	a5,0x1ffff
    44c4:	e8478793          	addi	a5,a5,-380 # 20003344 <errno>
    44c8:	439c                	lw	a5,0(a5)
    44ca:	c391                	beqz	a5,44ce <_write_r+0x2e>
    44cc:	c01c                	sw	a5,0(s0)
    44ce:	40b2                	lw	ra,12(sp)
    44d0:	4422                	lw	s0,8(sp)
    44d2:	0141                	addi	sp,sp,16
    44d4:	8082                	ret

000044d6 <_close_r>:
    44d6:	1141                	addi	sp,sp,-16
    44d8:	c422                	sw	s0,8(sp)
    44da:	842a                	mv	s0,a0
    44dc:	852e                	mv	a0,a1
    44de:	1ffff797          	auipc	a5,0x1ffff
    44e2:	e607a323          	sw	zero,-410(a5) # 20003344 <errno>
    44e6:	c606                	sw	ra,12(sp)
    44e8:	2211                	jal	45ec <_close>
    44ea:	57fd                	li	a5,-1
    44ec:	00f51963          	bne	a0,a5,44fe <_close_r+0x28>
    44f0:	1ffff797          	auipc	a5,0x1ffff
    44f4:	e5478793          	addi	a5,a5,-428 # 20003344 <errno>
    44f8:	439c                	lw	a5,0(a5)
    44fa:	c391                	beqz	a5,44fe <_close_r+0x28>
    44fc:	c01c                	sw	a5,0(s0)
    44fe:	40b2                	lw	ra,12(sp)
    4500:	4422                	lw	s0,8(sp)
    4502:	0141                	addi	sp,sp,16
    4504:	8082                	ret

00004506 <_fstat_r>:
    4506:	1141                	addi	sp,sp,-16
    4508:	c422                	sw	s0,8(sp)
    450a:	842a                	mv	s0,a0
    450c:	852e                	mv	a0,a1
    450e:	85b2                	mv	a1,a2
    4510:	1ffff797          	auipc	a5,0x1ffff
    4514:	e207aa23          	sw	zero,-460(a5) # 20003344 <errno>
    4518:	c606                	sw	ra,12(sp)
    451a:	20cd                	jal	45fc <_fstat>
    451c:	57fd                	li	a5,-1
    451e:	00f51963          	bne	a0,a5,4530 <_fstat_r+0x2a>
    4522:	1ffff797          	auipc	a5,0x1ffff
    4526:	e2278793          	addi	a5,a5,-478 # 20003344 <errno>
    452a:	439c                	lw	a5,0(a5)
    452c:	c391                	beqz	a5,4530 <_fstat_r+0x2a>
    452e:	c01c                	sw	a5,0(s0)
    4530:	40b2                	lw	ra,12(sp)
    4532:	4422                	lw	s0,8(sp)
    4534:	0141                	addi	sp,sp,16
    4536:	8082                	ret

00004538 <_isatty_r>:
    4538:	1141                	addi	sp,sp,-16
    453a:	c422                	sw	s0,8(sp)
    453c:	842a                	mv	s0,a0
    453e:	852e                	mv	a0,a1
    4540:	1ffff797          	auipc	a5,0x1ffff
    4544:	e007a223          	sw	zero,-508(a5) # 20003344 <errno>
    4548:	c606                	sw	ra,12(sp)
    454a:	20c9                	jal	460c <_isatty>
    454c:	57fd                	li	a5,-1
    454e:	00f51963          	bne	a0,a5,4560 <_isatty_r+0x28>
    4552:	1ffff797          	auipc	a5,0x1ffff
    4556:	df278793          	addi	a5,a5,-526 # 20003344 <errno>
    455a:	439c                	lw	a5,0(a5)
    455c:	c391                	beqz	a5,4560 <_isatty_r+0x28>
    455e:	c01c                	sw	a5,0(s0)
    4560:	40b2                	lw	ra,12(sp)
    4562:	4422                	lw	s0,8(sp)
    4564:	0141                	addi	sp,sp,16
    4566:	8082                	ret

00004568 <_lseek_r>:
    4568:	1141                	addi	sp,sp,-16
    456a:	c422                	sw	s0,8(sp)
    456c:	842a                	mv	s0,a0
    456e:	852e                	mv	a0,a1
    4570:	85b2                	mv	a1,a2
    4572:	8636                	mv	a2,a3
    4574:	1ffff797          	auipc	a5,0x1ffff
    4578:	dc07a823          	sw	zero,-560(a5) # 20003344 <errno>
    457c:	c606                	sw	ra,12(sp)
    457e:	2879                	jal	461c <_lseek>
    4580:	57fd                	li	a5,-1
    4582:	00f51963          	bne	a0,a5,4594 <_lseek_r+0x2c>
    4586:	1ffff797          	auipc	a5,0x1ffff
    458a:	dbe78793          	addi	a5,a5,-578 # 20003344 <errno>
    458e:	439c                	lw	a5,0(a5)
    4590:	c391                	beqz	a5,4594 <_lseek_r+0x2c>
    4592:	c01c                	sw	a5,0(s0)
    4594:	40b2                	lw	ra,12(sp)
    4596:	4422                	lw	s0,8(sp)
    4598:	0141                	addi	sp,sp,16
    459a:	8082                	ret

0000459c <memchr>:
    459c:	0ff5f593          	andi	a1,a1,255
    45a0:	962a                	add	a2,a2,a0
    45a2:	00c51463          	bne	a0,a2,45aa <memchr+0xe>
    45a6:	4501                	li	a0,0
    45a8:	8082                	ret
    45aa:	211c                	lbu	a5,0(a0)
    45ac:	feb78ee3          	beq	a5,a1,45a8 <memchr+0xc>
    45b0:	0505                	addi	a0,a0,1
    45b2:	bfc5                	j	45a2 <memchr+0x6>

000045b4 <__malloc_lock>:
    45b4:	8082                	ret

000045b6 <__malloc_unlock>:
    45b6:	8082                	ret

000045b8 <_read_r>:
    45b8:	1141                	addi	sp,sp,-16
    45ba:	c422                	sw	s0,8(sp)
    45bc:	842a                	mv	s0,a0
    45be:	852e                	mv	a0,a1
    45c0:	85b2                	mv	a1,a2
    45c2:	8636                	mv	a2,a3
    45c4:	1ffff797          	auipc	a5,0x1ffff
    45c8:	d807a023          	sw	zero,-640(a5) # 20003344 <errno>
    45cc:	c606                	sw	ra,12(sp)
    45ce:	28b9                	jal	462c <_read>
    45d0:	57fd                	li	a5,-1
    45d2:	00f51963          	bne	a0,a5,45e4 <_read_r+0x2c>
    45d6:	1ffff797          	auipc	a5,0x1ffff
    45da:	d6e78793          	addi	a5,a5,-658 # 20003344 <errno>
    45de:	439c                	lw	a5,0(a5)
    45e0:	c391                	beqz	a5,45e4 <_read_r+0x2c>
    45e2:	c01c                	sw	a5,0(s0)
    45e4:	40b2                	lw	ra,12(sp)
    45e6:	4422                	lw	s0,8(sp)
    45e8:	0141                	addi	sp,sp,16
    45ea:	8082                	ret

000045ec <_close>:
    45ec:	05800793          	li	a5,88
    45f0:	1ffff717          	auipc	a4,0x1ffff
    45f4:	d4f72a23          	sw	a5,-684(a4) # 20003344 <errno>
    45f8:	557d                	li	a0,-1
    45fa:	8082                	ret

000045fc <_fstat>:
    45fc:	05800793          	li	a5,88
    4600:	1ffff717          	auipc	a4,0x1ffff
    4604:	d4f72223          	sw	a5,-700(a4) # 20003344 <errno>
    4608:	557d                	li	a0,-1
    460a:	8082                	ret

0000460c <_isatty>:
    460c:	05800793          	li	a5,88
    4610:	1ffff717          	auipc	a4,0x1ffff
    4614:	d2f72a23          	sw	a5,-716(a4) # 20003344 <errno>
    4618:	4501                	li	a0,0
    461a:	8082                	ret

0000461c <_lseek>:
    461c:	05800793          	li	a5,88
    4620:	1ffff717          	auipc	a4,0x1ffff
    4624:	d2f72223          	sw	a5,-732(a4) # 20003344 <errno>
    4628:	557d                	li	a0,-1
    462a:	8082                	ret

0000462c <_read>:
    462c:	05800793          	li	a5,88
    4630:	1ffff717          	auipc	a4,0x1ffff
    4634:	d0f72a23          	sw	a5,-748(a4) # 20003344 <errno>
    4638:	557d                	li	a0,-1
    463a:	8082                	ret
    463c:	6164                	flw	fs1,68(a0)
    463e:	6220                	flw	fs0,64(a2)
    4640:	6d61                	lui	s10,0x18
    4642:	4d20                	lw	s0,88(a0)
    4644:	4e45                	li	t3,17
    4646:	0d55                	addi	s10,s10,21
    4648:	0000                	unimp
    464a:	0000                	unimp
    464c:	6164                	flw	fs1,68(a0)
    464e:	6220                	flw	fs0,64(a2)
    4650:	6d61                	lui	s10,0x18
    4652:	7220                	flw	fs0,96(a2)
    4654:	5465                	li	s0,-7
    4656:	5255                	li	tp,-11
    4658:	204e                	lhu	a1,4(s0)
    465a:	000d                	c.nop	3
    465c:	6164                	flw	fs1,68(a0)
    465e:	6220                	flw	fs0,64(a2)
    4660:	6d61                	lui	s10,0x18
    4662:	5520                	lw	s0,104(a0)
    4664:	2050                	lbu	a2,4(s0)
    4666:	000d                	c.nop	3
    4668:	6164                	flw	fs1,68(a0)
    466a:	6220                	flw	fs0,64(a2)
    466c:	6d61                	lui	s10,0x18
    466e:	4420                	lw	s0,72(s0)
    4670:	204e574f          	fnmadd.s	fa4,ft8,ft4,ft4,unknown
    4674:	000d                	c.nop	3
    4676:	0000                	unimp
    4678:	6174                	flw	fa3,68(a0)
    467a:	62206b73          	csrrsi	s6,0x622,0
    467e:	7475                	lui	s0,0xffffd
    4680:	0000                	unimp
    4682:	0000                	unimp
    4684:	3a6d                	jal	403e <_printf_common+0x28>
    4686:	6425                	lui	s0,0x9
    4688:	6820                	flw	fs0,80(s0)
    468a:	253a                	lhu	a4,10(a0)
    468c:	2064                	lbu	s1,6(s0)
    468e:	64253a73          	csrrc	s4,0x642,a0
    4692:	000a                	c.slli	zero,0x2
    4694:	72617453          	0x72617453
    4698:	2074                	lbu	a3,6(s0)
    469a:	74697257          	0x74697257
    469e:	2065                	jal	4746 <digitCode+0x62>
    46a0:	3432                	lhu	a2,42(s0)
    46a2:	2e787843          	fmadd.q	fa6,fa6,ft7,ft5
    46a6:	2e2e                	lhu	a1,26(a2)
    46a8:	0d2e                	slli	s10,s10,0xb
    46aa:	0000                	unimp
    46ac:	72617453          	0x72617453
    46b0:	2074                	lbu	a3,6(s0)
    46b2:	6552                	flw	fa0,20(sp)
    46b4:	6461                	lui	s0,0x18
    46b6:	3220                	lbu	s0,3(a2)
    46b8:	4334                	lw	a3,64(a4)
    46ba:	7878                	flw	fa4,116(s0)
    46bc:	2e2e                	lhu	a1,26(a2)
    46be:	2e2e                	lhu	a1,26(a2)
    46c0:	000d                	c.nop	3
    46c2:	0000                	unimp
    46c4:	6854                	flw	fa3,20(s0)
    46c6:	2065                	jal	476e <digitCode+0x8a>
    46c8:	6144                	flw	fs1,4(a0)
    46ca:	6174                	flw	fa3,68(a0)
    46cc:	5220                	lw	s0,96(a2)
    46ce:	6165                	addi	sp,sp,112
    46d0:	6564                	flw	fs1,76(a0)
    46d2:	2064                	lbu	s1,6(s0)
    46d4:	7349                	lui	t1,0xffff2
    46d6:	203a                	lhu	a4,2(s0)
    46d8:	000d                	c.nop	3
    46da:	0000                	unimp
    46dc:	7325                	lui	t1,0xfffe9
    46de:	0a0d                	addi	s4,s4,3
    46e0:	0000                	unimp
	...

000046e4 <digitCode>:
    46e4:	063f 4f5b 6d66 077d 6f7f 0000 3156 2e30     ?.[Ofm}..o..V10.
    46f4:	2e34 0036 7953 7473 6d65 6c43 3a6b 6425     4.6.SystemClk:%d
    4704:	4620 4552 5245 4f54 2053 4556 3a52 7325      FREERTOS VER:%s
    4714:	5620 4444 253a 646c 0a0d 0000 7571 6565      VDD:%ld....quee
    4724:	2075 6166 6c69 000d 0d33 0000 6174 6b73     u fail..3...task
    4734:	0032 0000 0d32 0000 6174 6b73 0031 0000     2...2...task1...
    4744:	6174 6b73 0033 0000 0a0d 7420 7361 206b     task3..... task 
    4754:	2031 484e 4e41 5120 4555 4555 253a 0d64     1 NHAN QUEUE:%d.
    4764:	000a 0000 6174 6b73 2031 6e65 7274 0d79     ....task1 entry.
    4774:	0000 0000 6874 3a75 6425 6e20 6167 3a79     ....thu:%d ngay:
    4784:	6425 7420 6168 676e 253a 2064 616e 3a6d     %d thang:%d nam:
    4794:	6425 0d20 000a 0000 6967 3a6f 6425 7020     %d .....gio:%d p
    47a4:	7568 3a74 6425 6720 6169 3a79 6425 0d20     hut:%d giay:%d .
    47b4:	000a 0000 686e 6569 2074 6f64 253a 2e64     ....nhiet do:%d.
    47c4:	6425 0a0d 0000 0000 2e2e 462f 6572 5265     %d......../FreeR
    47d4:	4f54 2f53 6f70 7472 6261 656c 4d2f 6d65     TOS/portable/Mem
    47e4:	614d 676e 682f 6165 5f70 2e34 0063 0000     Mang/heap_4.c...
    47f4:	7265 2072 7461 6c20 6e69 2065 6425 6f20     err at line %d o
    4804:	2066 6966 656c 2220 7325 2e22 0d20 200a     f file "%s". .. 
    4814:	0000 0000 2e2e 462f 6572 5265 4f54 2f53     ....../FreeRTOS/
    4824:	6f70 7472 6261 656c 472f 4343 522f 5349     portable/GCC/RIS
    4834:	2d43 2f56 6f70 7472 632e 0000 2e2e 462f     C-V/port.c..../F
    4844:	6572 5265 4f54 2f53 7571 7565 2e65 0063     reeRTOS/queue.c.
    4854:	2e2e 462f 6572 5265 4f54 2f53 6174 6b73     ../FreeRTOS/task
    4864:	2e73 0063 4449 454c 0000 0000 3164 0000     s.c.IDLE....d1..
    4874:	3164 0000 31a8 0000 31b4 0000 31f6 0000     d1...1...1...1..
    4884:	3164 0000 3164 0000 31a8 0000 31b4 0000     d1..d1...1...1..
    4894:	6d54 5172 0000 0000 2e2e 462f 6572 5265     TmrQ....../FreeR
    48a4:	4f54 2f53 6974 656d 7372 632e 0000 0000     TOS/timers.c....
    48b4:	6d54 2072 7653 0063                         Tmr Svc.

000048bc <__sf_fake_stderr>:
	...

000048dc <__sf_fake_stdin>:
	...

000048fc <__sf_fake_stdout>:
	...
    491c:	2d23 2b30 0020 0000 6c68 004c 6665 4567     #-0+ ...hlL.efgE
    492c:	4746 0000 3130 3332 3534 3736 3938 4241     FG..0123456789AB
    493c:	4443 4645 0000 0000 3130 3332 3534 3736     CDEF....01234567
    494c:	3938 6261 6463 6665 0000 0000               89abcdef....
